ARM GAS  /tmp/ccKmLCfq.s 			page 1


   1              		.cpu cortex-m0
   2              		.eabi_attribute 20, 1
   3              		.eabi_attribute 21, 1
   4              		.eabi_attribute 23, 3
   5              		.eabi_attribute 24, 1
   6              		.eabi_attribute 25, 1
   7              		.eabi_attribute 26, 1
   8              		.eabi_attribute 30, 1
   9              		.eabi_attribute 34, 0
  10              		.eabi_attribute 18, 4
  11              		.file	"stm32f0xx_it.c"
  12              		.text
  13              	.Ltext0:
  14              		.cfi_sections	.debug_frame
  15              		.section	.text.NMI_Handler,"ax",%progbits
  16              		.align	1
  17              		.global	NMI_Handler
  18              		.arch armv6s-m
  19              		.syntax unified
  20              		.code	16
  21              		.thumb_func
  22              		.fpu softvfp
  24              	NMI_Handler:
  25              	.LFB40:
  26              		.file 1 "Core/Src/stm32f0xx_it.c"
   1:Core/Src/stm32f0xx_it.c **** /* USER CODE BEGIN Header */
   2:Core/Src/stm32f0xx_it.c **** /**
   3:Core/Src/stm32f0xx_it.c ****   ******************************************************************************
   4:Core/Src/stm32f0xx_it.c ****   * @file    stm32f0xx_it.c
   5:Core/Src/stm32f0xx_it.c ****   * @brief   Interrupt Service Routines.
   6:Core/Src/stm32f0xx_it.c ****   ******************************************************************************
   7:Core/Src/stm32f0xx_it.c ****   * @attention
   8:Core/Src/stm32f0xx_it.c ****   *
   9:Core/Src/stm32f0xx_it.c ****   * <h2><center>&copy; Copyright (c) 2021 STMicroelectronics.
  10:Core/Src/stm32f0xx_it.c ****   * All rights reserved.</center></h2>
  11:Core/Src/stm32f0xx_it.c ****   *
  12:Core/Src/stm32f0xx_it.c ****   * This software component is licensed by ST under Ultimate Liberty license
  13:Core/Src/stm32f0xx_it.c ****   * SLA0044, the "License"; You may not use this file except in compliance with
  14:Core/Src/stm32f0xx_it.c ****   * the License. You may obtain a copy of the License at:
  15:Core/Src/stm32f0xx_it.c ****   *                             www.st.com/SLA0044
  16:Core/Src/stm32f0xx_it.c ****   *
  17:Core/Src/stm32f0xx_it.c ****   ******************************************************************************
  18:Core/Src/stm32f0xx_it.c ****   */
  19:Core/Src/stm32f0xx_it.c **** /* USER CODE END Header */
  20:Core/Src/stm32f0xx_it.c **** 
  21:Core/Src/stm32f0xx_it.c **** /* Includes ------------------------------------------------------------------*/
  22:Core/Src/stm32f0xx_it.c **** #include "main.h"
  23:Core/Src/stm32f0xx_it.c **** #include "stm32f0xx_it.h"
  24:Core/Src/stm32f0xx_it.c **** /* Private includes ----------------------------------------------------------*/
  25:Core/Src/stm32f0xx_it.c **** /* USER CODE BEGIN Includes */
  26:Core/Src/stm32f0xx_it.c **** /* USER CODE END Includes */
  27:Core/Src/stm32f0xx_it.c **** 
  28:Core/Src/stm32f0xx_it.c **** /* Private typedef -----------------------------------------------------------*/
  29:Core/Src/stm32f0xx_it.c **** /* USER CODE BEGIN TD */
  30:Core/Src/stm32f0xx_it.c **** 
  31:Core/Src/stm32f0xx_it.c **** /* USER CODE END TD */
  32:Core/Src/stm32f0xx_it.c **** 
ARM GAS  /tmp/ccKmLCfq.s 			page 2


  33:Core/Src/stm32f0xx_it.c **** /* Private define ------------------------------------------------------------*/
  34:Core/Src/stm32f0xx_it.c **** /* USER CODE BEGIN PD */
  35:Core/Src/stm32f0xx_it.c **** 
  36:Core/Src/stm32f0xx_it.c **** /* USER CODE END PD */
  37:Core/Src/stm32f0xx_it.c **** 
  38:Core/Src/stm32f0xx_it.c **** /* Private macro -------------------------------------------------------------*/
  39:Core/Src/stm32f0xx_it.c **** /* USER CODE BEGIN PM */
  40:Core/Src/stm32f0xx_it.c **** 
  41:Core/Src/stm32f0xx_it.c **** /* USER CODE END PM */
  42:Core/Src/stm32f0xx_it.c **** 
  43:Core/Src/stm32f0xx_it.c **** /* Private variables ---------------------------------------------------------*/
  44:Core/Src/stm32f0xx_it.c **** /* USER CODE BEGIN PV */
  45:Core/Src/stm32f0xx_it.c **** 
  46:Core/Src/stm32f0xx_it.c **** /* USER CODE END PV */
  47:Core/Src/stm32f0xx_it.c **** 
  48:Core/Src/stm32f0xx_it.c **** /* Private function prototypes -----------------------------------------------*/
  49:Core/Src/stm32f0xx_it.c **** /* USER CODE BEGIN PFP */
  50:Core/Src/stm32f0xx_it.c **** 
  51:Core/Src/stm32f0xx_it.c **** /* USER CODE END PFP */
  52:Core/Src/stm32f0xx_it.c **** 
  53:Core/Src/stm32f0xx_it.c **** /* Private user code ---------------------------------------------------------*/
  54:Core/Src/stm32f0xx_it.c **** /* USER CODE BEGIN 0 */
  55:Core/Src/stm32f0xx_it.c **** 
  56:Core/Src/stm32f0xx_it.c **** /* USER CODE END 0 */
  57:Core/Src/stm32f0xx_it.c **** 
  58:Core/Src/stm32f0xx_it.c **** /* External variables --------------------------------------------------------*/
  59:Core/Src/stm32f0xx_it.c **** extern PCD_HandleTypeDef hpcd_USB_FS;
  60:Core/Src/stm32f0xx_it.c **** extern UART_HandleTypeDef huart1;
  61:Core/Src/stm32f0xx_it.c **** /* USER CODE BEGIN EV */
  62:Core/Src/stm32f0xx_it.c **** 
  63:Core/Src/stm32f0xx_it.c **** /* USER CODE END EV */
  64:Core/Src/stm32f0xx_it.c **** 
  65:Core/Src/stm32f0xx_it.c **** /******************************************************************************/
  66:Core/Src/stm32f0xx_it.c **** /*           Cortex-M0 Processor Interruption and Exception Handlers          */
  67:Core/Src/stm32f0xx_it.c **** /******************************************************************************/
  68:Core/Src/stm32f0xx_it.c **** /**
  69:Core/Src/stm32f0xx_it.c ****   * @brief This function handles Non maskable interrupt.
  70:Core/Src/stm32f0xx_it.c ****   */
  71:Core/Src/stm32f0xx_it.c **** void NMI_Handler(void)
  72:Core/Src/stm32f0xx_it.c **** {
  27              		.loc 1 72 1 view -0
  28              		.cfi_startproc
  29              		@ Volatile: function does not return.
  30              		@ args = 0, pretend = 0, frame = 0
  31              		@ frame_needed = 0, uses_anonymous_args = 0
  32              		@ link register save eliminated.
  33              	.L2:
  73:Core/Src/stm32f0xx_it.c ****   /* USER CODE BEGIN NonMaskableInt_IRQn 0 */
  74:Core/Src/stm32f0xx_it.c **** 
  75:Core/Src/stm32f0xx_it.c ****   /* USER CODE END NonMaskableInt_IRQn 0 */
  76:Core/Src/stm32f0xx_it.c ****   /* USER CODE BEGIN NonMaskableInt_IRQn 1 */
  77:Core/Src/stm32f0xx_it.c ****   while (1)
  34              		.loc 1 77 3 discriminator 1 view .LVU1
  78:Core/Src/stm32f0xx_it.c ****   {
  79:Core/Src/stm32f0xx_it.c ****   }
  35              		.loc 1 79 3 discriminator 1 view .LVU2
  77:Core/Src/stm32f0xx_it.c ****   {
ARM GAS  /tmp/ccKmLCfq.s 			page 3


  36              		.loc 1 77 9 discriminator 1 view .LVU3
  37 0000 FEE7     		b	.L2
  38              		.cfi_endproc
  39              	.LFE40:
  41              		.section	.text.HardFault_Handler,"ax",%progbits
  42              		.align	1
  43              		.global	HardFault_Handler
  44              		.syntax unified
  45              		.code	16
  46              		.thumb_func
  47              		.fpu softvfp
  49              	HardFault_Handler:
  50              	.LFB41:
  80:Core/Src/stm32f0xx_it.c ****   /* USER CODE END NonMaskableInt_IRQn 1 */
  81:Core/Src/stm32f0xx_it.c **** }
  82:Core/Src/stm32f0xx_it.c **** 
  83:Core/Src/stm32f0xx_it.c **** /**
  84:Core/Src/stm32f0xx_it.c ****   * @brief This function handles Hard fault interrupt.
  85:Core/Src/stm32f0xx_it.c ****   */
  86:Core/Src/stm32f0xx_it.c **** void HardFault_Handler(void)
  87:Core/Src/stm32f0xx_it.c **** {
  51              		.loc 1 87 1 view -0
  52              		.cfi_startproc
  53              		@ Volatile: function does not return.
  54              		@ args = 0, pretend = 0, frame = 0
  55              		@ frame_needed = 0, uses_anonymous_args = 0
  56              		@ link register save eliminated.
  57              	.L4:
  88:Core/Src/stm32f0xx_it.c ****   /* USER CODE BEGIN HardFault_IRQn 0 */
  89:Core/Src/stm32f0xx_it.c **** 
  90:Core/Src/stm32f0xx_it.c ****   /* USER CODE END HardFault_IRQn 0 */
  91:Core/Src/stm32f0xx_it.c ****   while (1)
  58              		.loc 1 91 3 discriminator 1 view .LVU5
  92:Core/Src/stm32f0xx_it.c ****   {
  93:Core/Src/stm32f0xx_it.c ****     /* USER CODE BEGIN W1_HardFault_IRQn 0 */
  94:Core/Src/stm32f0xx_it.c ****     /* USER CODE END W1_HardFault_IRQn 0 */
  95:Core/Src/stm32f0xx_it.c ****   }
  59              		.loc 1 95 3 discriminator 1 view .LVU6
  91:Core/Src/stm32f0xx_it.c ****   {
  60              		.loc 1 91 9 discriminator 1 view .LVU7
  61 0000 FEE7     		b	.L4
  62              		.cfi_endproc
  63              	.LFE41:
  65              		.section	.text.SVC_Handler,"ax",%progbits
  66              		.align	1
  67              		.global	SVC_Handler
  68              		.syntax unified
  69              		.code	16
  70              		.thumb_func
  71              		.fpu softvfp
  73              	SVC_Handler:
  74              	.LFB42:
  96:Core/Src/stm32f0xx_it.c **** }
  97:Core/Src/stm32f0xx_it.c **** 
  98:Core/Src/stm32f0xx_it.c **** /**
  99:Core/Src/stm32f0xx_it.c ****   * @brief This function handles System service call via SWI instruction.
 100:Core/Src/stm32f0xx_it.c ****   */
ARM GAS  /tmp/ccKmLCfq.s 			page 4


 101:Core/Src/stm32f0xx_it.c **** void SVC_Handler(void)
 102:Core/Src/stm32f0xx_it.c **** {
  75              		.loc 1 102 1 view -0
  76              		.cfi_startproc
  77              		@ args = 0, pretend = 0, frame = 0
  78              		@ frame_needed = 0, uses_anonymous_args = 0
  79              		@ link register save eliminated.
 103:Core/Src/stm32f0xx_it.c ****   /* USER CODE BEGIN SVC_IRQn 0 */
 104:Core/Src/stm32f0xx_it.c **** 
 105:Core/Src/stm32f0xx_it.c ****   /* USER CODE END SVC_IRQn 0 */
 106:Core/Src/stm32f0xx_it.c ****   /* USER CODE BEGIN SVC_IRQn 1 */
 107:Core/Src/stm32f0xx_it.c **** 
 108:Core/Src/stm32f0xx_it.c ****   /* USER CODE END SVC_IRQn 1 */
 109:Core/Src/stm32f0xx_it.c **** }
  80              		.loc 1 109 1 view .LVU9
  81              		@ sp needed
  82 0000 7047     		bx	lr
  83              		.cfi_endproc
  84              	.LFE42:
  86              		.section	.text.PendSV_Handler,"ax",%progbits
  87              		.align	1
  88              		.global	PendSV_Handler
  89              		.syntax unified
  90              		.code	16
  91              		.thumb_func
  92              		.fpu softvfp
  94              	PendSV_Handler:
  95              	.LFB43:
 110:Core/Src/stm32f0xx_it.c **** 
 111:Core/Src/stm32f0xx_it.c **** /**
 112:Core/Src/stm32f0xx_it.c ****   * @brief This function handles Pendable request for system service.
 113:Core/Src/stm32f0xx_it.c ****   */
 114:Core/Src/stm32f0xx_it.c **** void PendSV_Handler(void)
 115:Core/Src/stm32f0xx_it.c **** {
  96              		.loc 1 115 1 view -0
  97              		.cfi_startproc
  98              		@ args = 0, pretend = 0, frame = 0
  99              		@ frame_needed = 0, uses_anonymous_args = 0
 100              		@ link register save eliminated.
 116:Core/Src/stm32f0xx_it.c ****   /* USER CODE BEGIN PendSV_IRQn 0 */
 117:Core/Src/stm32f0xx_it.c **** 
 118:Core/Src/stm32f0xx_it.c ****   /* USER CODE END PendSV_IRQn 0 */
 119:Core/Src/stm32f0xx_it.c ****   /* USER CODE BEGIN PendSV_IRQn 1 */
 120:Core/Src/stm32f0xx_it.c **** 
 121:Core/Src/stm32f0xx_it.c ****   /* USER CODE END PendSV_IRQn 1 */
 122:Core/Src/stm32f0xx_it.c **** }
 101              		.loc 1 122 1 view .LVU11
 102              		@ sp needed
 103 0000 7047     		bx	lr
 104              		.cfi_endproc
 105              	.LFE43:
 107              		.section	.text.SysTick_Handler,"ax",%progbits
 108              		.align	1
 109              		.global	SysTick_Handler
 110              		.syntax unified
 111              		.code	16
 112              		.thumb_func
ARM GAS  /tmp/ccKmLCfq.s 			page 5


 113              		.fpu softvfp
 115              	SysTick_Handler:
 116              	.LFB44:
 123:Core/Src/stm32f0xx_it.c **** 
 124:Core/Src/stm32f0xx_it.c **** /**
 125:Core/Src/stm32f0xx_it.c ****   * @brief This function handles System tick timer.
 126:Core/Src/stm32f0xx_it.c ****   */
 127:Core/Src/stm32f0xx_it.c **** void SysTick_Handler(void)
 128:Core/Src/stm32f0xx_it.c **** {
 117              		.loc 1 128 1 view -0
 118              		.cfi_startproc
 119              		@ args = 0, pretend = 0, frame = 0
 120              		@ frame_needed = 0, uses_anonymous_args = 0
 121 0000 10B5     		push	{r4, lr}
 122              	.LCFI0:
 123              		.cfi_def_cfa_offset 8
 124              		.cfi_offset 4, -8
 125              		.cfi_offset 14, -4
 129:Core/Src/stm32f0xx_it.c ****   /* USER CODE BEGIN SysTick_IRQn 0 */
 130:Core/Src/stm32f0xx_it.c **** 
 131:Core/Src/stm32f0xx_it.c ****   /* USER CODE END SysTick_IRQn 0 */
 132:Core/Src/stm32f0xx_it.c ****   HAL_IncTick();
 126              		.loc 1 132 3 view .LVU13
 127 0002 FFF7FEFF 		bl	HAL_IncTick
 128              	.LVL0:
 133:Core/Src/stm32f0xx_it.c ****   /* USER CODE BEGIN SysTick_IRQn 1 */
 134:Core/Src/stm32f0xx_it.c **** 
 135:Core/Src/stm32f0xx_it.c ****   /* USER CODE END SysTick_IRQn 1 */
 136:Core/Src/stm32f0xx_it.c **** }
 129              		.loc 1 136 1 is_stmt 0 view .LVU14
 130              		@ sp needed
 131 0006 10BD     		pop	{r4, pc}
 132              		.cfi_endproc
 133              	.LFE44:
 135              		.section	.text.EXTI0_1_IRQHandler,"ax",%progbits
 136              		.align	1
 137              		.global	EXTI0_1_IRQHandler
 138              		.syntax unified
 139              		.code	16
 140              		.thumb_func
 141              		.fpu softvfp
 143              	EXTI0_1_IRQHandler:
 144              	.LFB45:
 137:Core/Src/stm32f0xx_it.c **** 
 138:Core/Src/stm32f0xx_it.c **** /******************************************************************************/
 139:Core/Src/stm32f0xx_it.c **** /* STM32F0xx Peripheral Interrupt Handlers                                    */
 140:Core/Src/stm32f0xx_it.c **** /* Add here the Interrupt Handlers for the used peripherals.                  */
 141:Core/Src/stm32f0xx_it.c **** /* For the available peripheral interrupt handler names,                      */
 142:Core/Src/stm32f0xx_it.c **** /* please refer to the startup file (startup_stm32f0xx.s).                    */
 143:Core/Src/stm32f0xx_it.c **** /******************************************************************************/
 144:Core/Src/stm32f0xx_it.c **** 
 145:Core/Src/stm32f0xx_it.c **** /**
 146:Core/Src/stm32f0xx_it.c ****   * @brief This function handles EXTI line 0 and 1 interrupts.
 147:Core/Src/stm32f0xx_it.c ****   */
 148:Core/Src/stm32f0xx_it.c **** void EXTI0_1_IRQHandler(void)
 149:Core/Src/stm32f0xx_it.c **** {
 145              		.loc 1 149 1 is_stmt 1 view -0
ARM GAS  /tmp/ccKmLCfq.s 			page 6


 146              		.cfi_startproc
 147              		@ args = 0, pretend = 0, frame = 0
 148              		@ frame_needed = 0, uses_anonymous_args = 0
 149 0000 10B5     		push	{r4, lr}
 150              	.LCFI1:
 151              		.cfi_def_cfa_offset 8
 152              		.cfi_offset 4, -8
 153              		.cfi_offset 14, -4
 150:Core/Src/stm32f0xx_it.c ****   /* USER CODE BEGIN EXTI0_1_IRQn 0 */
 151:Core/Src/stm32f0xx_it.c **** 
 152:Core/Src/stm32f0xx_it.c ****   /* USER CODE END EXTI0_1_IRQn 0 */
 153:Core/Src/stm32f0xx_it.c ****   HAL_GPIO_EXTI_IRQHandler(GPIO_PIN_0);
 154              		.loc 1 153 3 view .LVU16
 155 0002 0120     		movs	r0, #1
 156 0004 FFF7FEFF 		bl	HAL_GPIO_EXTI_IRQHandler
 157              	.LVL1:
 154:Core/Src/stm32f0xx_it.c ****   HAL_GPIO_EXTI_IRQHandler(GPIO_PIN_1);
 158              		.loc 1 154 3 view .LVU17
 159 0008 0220     		movs	r0, #2
 160 000a FFF7FEFF 		bl	HAL_GPIO_EXTI_IRQHandler
 161              	.LVL2:
 155:Core/Src/stm32f0xx_it.c ****   /* USER CODE BEGIN EXTI0_1_IRQn 1 */
 156:Core/Src/stm32f0xx_it.c **** 
 157:Core/Src/stm32f0xx_it.c ****   /* USER CODE END EXTI0_1_IRQn 1 */
 158:Core/Src/stm32f0xx_it.c **** }
 162              		.loc 1 158 1 is_stmt 0 view .LVU18
 163              		@ sp needed
 164 000e 10BD     		pop	{r4, pc}
 165              		.cfi_endproc
 166              	.LFE45:
 168              		.section	.text.EXTI2_3_IRQHandler,"ax",%progbits
 169              		.align	1
 170              		.global	EXTI2_3_IRQHandler
 171              		.syntax unified
 172              		.code	16
 173              		.thumb_func
 174              		.fpu softvfp
 176              	EXTI2_3_IRQHandler:
 177              	.LFB46:
 159:Core/Src/stm32f0xx_it.c **** 
 160:Core/Src/stm32f0xx_it.c **** /**
 161:Core/Src/stm32f0xx_it.c ****   * @brief This function handles EXTI line 2 and 3 interrupts.
 162:Core/Src/stm32f0xx_it.c ****   */
 163:Core/Src/stm32f0xx_it.c **** void EXTI2_3_IRQHandler(void)
 164:Core/Src/stm32f0xx_it.c **** {
 178              		.loc 1 164 1 is_stmt 1 view -0
 179              		.cfi_startproc
 180              		@ args = 0, pretend = 0, frame = 0
 181              		@ frame_needed = 0, uses_anonymous_args = 0
 182 0000 10B5     		push	{r4, lr}
 183              	.LCFI2:
 184              		.cfi_def_cfa_offset 8
 185              		.cfi_offset 4, -8
 186              		.cfi_offset 14, -4
 165:Core/Src/stm32f0xx_it.c ****   /* USER CODE BEGIN EXTI2_3_IRQn 0 */
 166:Core/Src/stm32f0xx_it.c **** 
 167:Core/Src/stm32f0xx_it.c ****   /* USER CODE END EXTI2_3_IRQn 0 */
ARM GAS  /tmp/ccKmLCfq.s 			page 7


 168:Core/Src/stm32f0xx_it.c ****   HAL_GPIO_EXTI_IRQHandler(GPIO_PIN_2);
 187              		.loc 1 168 3 view .LVU20
 188 0002 0420     		movs	r0, #4
 189 0004 FFF7FEFF 		bl	HAL_GPIO_EXTI_IRQHandler
 190              	.LVL3:
 169:Core/Src/stm32f0xx_it.c ****   /* USER CODE BEGIN EXTI2_3_IRQn 1 */
 170:Core/Src/stm32f0xx_it.c **** 
 171:Core/Src/stm32f0xx_it.c ****   /* USER CODE END EXTI2_3_IRQn 1 */
 172:Core/Src/stm32f0xx_it.c **** }
 191              		.loc 1 172 1 is_stmt 0 view .LVU21
 192              		@ sp needed
 193 0008 10BD     		pop	{r4, pc}
 194              		.cfi_endproc
 195              	.LFE46:
 197              		.section	.text.USART1_IRQHandler,"ax",%progbits
 198              		.align	1
 199              		.global	USART1_IRQHandler
 200              		.syntax unified
 201              		.code	16
 202              		.thumb_func
 203              		.fpu softvfp
 205              	USART1_IRQHandler:
 206              	.LFB47:
 173:Core/Src/stm32f0xx_it.c **** 
 174:Core/Src/stm32f0xx_it.c **** /**
 175:Core/Src/stm32f0xx_it.c ****   * @brief This function handles USART1 global interrupt.
 176:Core/Src/stm32f0xx_it.c ****   */
 177:Core/Src/stm32f0xx_it.c **** void USART1_IRQHandler(void)
 178:Core/Src/stm32f0xx_it.c **** {
 207              		.loc 1 178 1 is_stmt 1 view -0
 208              		.cfi_startproc
 209              		@ args = 0, pretend = 0, frame = 0
 210              		@ frame_needed = 0, uses_anonymous_args = 0
 211 0000 10B5     		push	{r4, lr}
 212              	.LCFI3:
 213              		.cfi_def_cfa_offset 8
 214              		.cfi_offset 4, -8
 215              		.cfi_offset 14, -4
 179:Core/Src/stm32f0xx_it.c ****   /* USER CODE BEGIN USART1_IRQn 0 */
 180:Core/Src/stm32f0xx_it.c **** 
 181:Core/Src/stm32f0xx_it.c ****   /* USER CODE END USART1_IRQn 0 */
 182:Core/Src/stm32f0xx_it.c ****   HAL_UART_IRQHandler(&huart1);
 216              		.loc 1 182 3 view .LVU23
 217 0002 0248     		ldr	r0, .L11
 218 0004 FFF7FEFF 		bl	HAL_UART_IRQHandler
 219              	.LVL4:
 183:Core/Src/stm32f0xx_it.c ****   /* USER CODE BEGIN USART1_IRQn 1 */
 184:Core/Src/stm32f0xx_it.c **** 
 185:Core/Src/stm32f0xx_it.c ****   /* USER CODE END USART1_IRQn 1 */
 186:Core/Src/stm32f0xx_it.c **** }
 220              		.loc 1 186 1 is_stmt 0 view .LVU24
 221              		@ sp needed
 222 0008 10BD     		pop	{r4, pc}
 223              	.L12:
 224 000a C046     		.align	2
 225              	.L11:
 226 000c 00000000 		.word	huart1
ARM GAS  /tmp/ccKmLCfq.s 			page 8


 227              		.cfi_endproc
 228              	.LFE47:
 230              		.section	.text.USB_IRQHandler,"ax",%progbits
 231              		.align	1
 232              		.global	USB_IRQHandler
 233              		.syntax unified
 234              		.code	16
 235              		.thumb_func
 236              		.fpu softvfp
 238              	USB_IRQHandler:
 239              	.LFB48:
 187:Core/Src/stm32f0xx_it.c **** 
 188:Core/Src/stm32f0xx_it.c **** /**
 189:Core/Src/stm32f0xx_it.c ****   * @brief This function handles USB global interrupt / USB wake-up interrupt through EXTI line 18.
 190:Core/Src/stm32f0xx_it.c ****   */
 191:Core/Src/stm32f0xx_it.c **** void USB_IRQHandler(void)
 192:Core/Src/stm32f0xx_it.c **** {
 240              		.loc 1 192 1 is_stmt 1 view -0
 241              		.cfi_startproc
 242              		@ args = 0, pretend = 0, frame = 0
 243              		@ frame_needed = 0, uses_anonymous_args = 0
 244 0000 10B5     		push	{r4, lr}
 245              	.LCFI4:
 246              		.cfi_def_cfa_offset 8
 247              		.cfi_offset 4, -8
 248              		.cfi_offset 14, -4
 193:Core/Src/stm32f0xx_it.c ****   /* USER CODE BEGIN USB_IRQn 0 */
 194:Core/Src/stm32f0xx_it.c **** 
 195:Core/Src/stm32f0xx_it.c ****   /* USER CODE END USB_IRQn 0 */
 196:Core/Src/stm32f0xx_it.c ****   HAL_PCD_IRQHandler(&hpcd_USB_FS);
 249              		.loc 1 196 3 view .LVU26
 250 0002 0248     		ldr	r0, .L14
 251 0004 FFF7FEFF 		bl	HAL_PCD_IRQHandler
 252              	.LVL5:
 197:Core/Src/stm32f0xx_it.c ****   /* USER CODE BEGIN USB_IRQn 1 */
 198:Core/Src/stm32f0xx_it.c **** 
 199:Core/Src/stm32f0xx_it.c ****   /* USER CODE END USB_IRQn 1 */
 200:Core/Src/stm32f0xx_it.c **** }
 253              		.loc 1 200 1 is_stmt 0 view .LVU27
 254              		@ sp needed
 255 0008 10BD     		pop	{r4, pc}
 256              	.L15:
 257 000a C046     		.align	2
 258              	.L14:
 259 000c 00000000 		.word	hpcd_USB_FS
 260              		.cfi_endproc
 261              	.LFE48:
 263              		.text
 264              	.Letext0:
 265              		.file 2 "/usr/lib/gcc/arm-none-eabi/9.2.1/include/stdint.h"
 266              		.file 3 "Drivers/CMSIS/Device/ST/STM32F0xx/Include/system_stm32f0xx.h"
 267              		.file 4 "Drivers/CMSIS/Device/ST/STM32F0xx/Include/stm32f070xb.h"
 268              		.file 5 "Drivers/STM32F0xx_HAL_Driver/Inc/stm32f0xx_hal_def.h"
 269              		.file 6 "Drivers/STM32F0xx_HAL_Driver/Inc/stm32f0xx_hal_dma.h"
 270              		.file 7 "Drivers/STM32F0xx_HAL_Driver/Inc/stm32f0xx_ll_usb.h"
 271              		.file 8 "Drivers/STM32F0xx_HAL_Driver/Inc/stm32f0xx_hal_pcd.h"
 272              		.file 9 "Drivers/STM32F0xx_HAL_Driver/Inc/stm32f0xx_hal_uart.h"
ARM GAS  /tmp/ccKmLCfq.s 			page 9


 273              		.file 10 "Drivers/STM32F0xx_HAL_Driver/Inc/stm32f0xx_hal.h"
 274              		.file 11 "Drivers/STM32F0xx_HAL_Driver/Inc/stm32f0xx_hal_gpio.h"
ARM GAS  /tmp/ccKmLCfq.s 			page 10

