ARM GAS  /tmp/cclsNgIg.s 			page 1


   1              		.cpu cortex-m0
   2              		.eabi_attribute 20, 1
   3              		.eabi_attribute 21, 1
   4              		.eabi_attribute 23, 3
   5              		.eabi_attribute 24, 1
   6              		.eabi_attribute 25, 1
   7              		.eabi_attribute 26, 1
   8              		.eabi_attribute 30, 1
   9              		.eabi_attribute 34, 0
  10              		.eabi_attribute 18, 4
  11              		.file	"stm32f0xx_ll_usb.c"
  12              		.text
  13              	.Ltext0:
  14              		.cfi_sections	.debug_frame
  15              		.section	.text.USB_CoreInit,"ax",%progbits
  16              		.align	1
  17              		.global	USB_CoreInit
  18              		.arch armv6s-m
  19              		.syntax unified
  20              		.code	16
  21              		.thumb_func
  22              		.fpu softvfp
  24              	USB_CoreInit:
  25              	.LVL0:
  26              	.LFB40:
  27              		.file 1 "Drivers/STM32F0xx_HAL_Driver/Src/stm32f0xx_ll_usb.c"
   1:Drivers/STM32F0xx_HAL_Driver/Src/stm32f0xx_ll_usb.c **** /**
   2:Drivers/STM32F0xx_HAL_Driver/Src/stm32f0xx_ll_usb.c ****   ******************************************************************************
   3:Drivers/STM32F0xx_HAL_Driver/Src/stm32f0xx_ll_usb.c ****   * @file    stm32f0xx_ll_usb.c
   4:Drivers/STM32F0xx_HAL_Driver/Src/stm32f0xx_ll_usb.c ****   * @author  MCD Application Team
   5:Drivers/STM32F0xx_HAL_Driver/Src/stm32f0xx_ll_usb.c ****   * @brief   USB Low Layer HAL module driver.
   6:Drivers/STM32F0xx_HAL_Driver/Src/stm32f0xx_ll_usb.c ****   *
   7:Drivers/STM32F0xx_HAL_Driver/Src/stm32f0xx_ll_usb.c ****   *          This file provides firmware functions to manage the following
   8:Drivers/STM32F0xx_HAL_Driver/Src/stm32f0xx_ll_usb.c ****   *          functionalities of the USB Peripheral Controller:
   9:Drivers/STM32F0xx_HAL_Driver/Src/stm32f0xx_ll_usb.c ****   *           + Initialization/de-initialization functions
  10:Drivers/STM32F0xx_HAL_Driver/Src/stm32f0xx_ll_usb.c ****   *           + I/O operation functions
  11:Drivers/STM32F0xx_HAL_Driver/Src/stm32f0xx_ll_usb.c ****   *           + Peripheral Control functions
  12:Drivers/STM32F0xx_HAL_Driver/Src/stm32f0xx_ll_usb.c ****   *           + Peripheral State functions
  13:Drivers/STM32F0xx_HAL_Driver/Src/stm32f0xx_ll_usb.c ****   *
  14:Drivers/STM32F0xx_HAL_Driver/Src/stm32f0xx_ll_usb.c ****   @verbatim
  15:Drivers/STM32F0xx_HAL_Driver/Src/stm32f0xx_ll_usb.c ****   ==============================================================================
  16:Drivers/STM32F0xx_HAL_Driver/Src/stm32f0xx_ll_usb.c ****                     ##### How to use this driver #####
  17:Drivers/STM32F0xx_HAL_Driver/Src/stm32f0xx_ll_usb.c ****   ==============================================================================
  18:Drivers/STM32F0xx_HAL_Driver/Src/stm32f0xx_ll_usb.c ****     [..]
  19:Drivers/STM32F0xx_HAL_Driver/Src/stm32f0xx_ll_usb.c ****       (#) Fill parameters of Init structure in USB_OTG_CfgTypeDef structure.
  20:Drivers/STM32F0xx_HAL_Driver/Src/stm32f0xx_ll_usb.c **** 
  21:Drivers/STM32F0xx_HAL_Driver/Src/stm32f0xx_ll_usb.c ****       (#) Call USB_CoreInit() API to initialize the USB Core peripheral.
  22:Drivers/STM32F0xx_HAL_Driver/Src/stm32f0xx_ll_usb.c **** 
  23:Drivers/STM32F0xx_HAL_Driver/Src/stm32f0xx_ll_usb.c ****       (#) The upper HAL HCD/PCD driver will call the right routines for its internal processes.
  24:Drivers/STM32F0xx_HAL_Driver/Src/stm32f0xx_ll_usb.c **** 
  25:Drivers/STM32F0xx_HAL_Driver/Src/stm32f0xx_ll_usb.c ****   @endverbatim
  26:Drivers/STM32F0xx_HAL_Driver/Src/stm32f0xx_ll_usb.c ****   ******************************************************************************
  27:Drivers/STM32F0xx_HAL_Driver/Src/stm32f0xx_ll_usb.c ****   * @attention
  28:Drivers/STM32F0xx_HAL_Driver/Src/stm32f0xx_ll_usb.c ****   *
  29:Drivers/STM32F0xx_HAL_Driver/Src/stm32f0xx_ll_usb.c ****   * <h2><center>&copy; Copyright (c) 2016 STMicroelectronics.
  30:Drivers/STM32F0xx_HAL_Driver/Src/stm32f0xx_ll_usb.c ****   * All rights reserved.</center></h2>
  31:Drivers/STM32F0xx_HAL_Driver/Src/stm32f0xx_ll_usb.c ****   *
ARM GAS  /tmp/cclsNgIg.s 			page 2


  32:Drivers/STM32F0xx_HAL_Driver/Src/stm32f0xx_ll_usb.c ****   * This software component is licensed by ST under BSD 3-Clause license,
  33:Drivers/STM32F0xx_HAL_Driver/Src/stm32f0xx_ll_usb.c ****   * the "License"; You may not use this file except in compliance with the
  34:Drivers/STM32F0xx_HAL_Driver/Src/stm32f0xx_ll_usb.c ****   * License. You may obtain a copy of the License at:
  35:Drivers/STM32F0xx_HAL_Driver/Src/stm32f0xx_ll_usb.c ****   *                        opensource.org/licenses/BSD-3-Clause
  36:Drivers/STM32F0xx_HAL_Driver/Src/stm32f0xx_ll_usb.c ****   *
  37:Drivers/STM32F0xx_HAL_Driver/Src/stm32f0xx_ll_usb.c ****   ******************************************************************************
  38:Drivers/STM32F0xx_HAL_Driver/Src/stm32f0xx_ll_usb.c ****   */
  39:Drivers/STM32F0xx_HAL_Driver/Src/stm32f0xx_ll_usb.c **** 
  40:Drivers/STM32F0xx_HAL_Driver/Src/stm32f0xx_ll_usb.c **** /* Includes ------------------------------------------------------------------*/
  41:Drivers/STM32F0xx_HAL_Driver/Src/stm32f0xx_ll_usb.c **** #include "stm32f0xx_hal.h"
  42:Drivers/STM32F0xx_HAL_Driver/Src/stm32f0xx_ll_usb.c **** 
  43:Drivers/STM32F0xx_HAL_Driver/Src/stm32f0xx_ll_usb.c **** /** @addtogroup STM32F0xx_LL_USB_DRIVER
  44:Drivers/STM32F0xx_HAL_Driver/Src/stm32f0xx_ll_usb.c ****   * @{
  45:Drivers/STM32F0xx_HAL_Driver/Src/stm32f0xx_ll_usb.c ****   */
  46:Drivers/STM32F0xx_HAL_Driver/Src/stm32f0xx_ll_usb.c **** 
  47:Drivers/STM32F0xx_HAL_Driver/Src/stm32f0xx_ll_usb.c **** #if defined (HAL_PCD_MODULE_ENABLED) || defined (HAL_HCD_MODULE_ENABLED)
  48:Drivers/STM32F0xx_HAL_Driver/Src/stm32f0xx_ll_usb.c **** #if defined (USB)
  49:Drivers/STM32F0xx_HAL_Driver/Src/stm32f0xx_ll_usb.c **** /* Private typedef -----------------------------------------------------------*/
  50:Drivers/STM32F0xx_HAL_Driver/Src/stm32f0xx_ll_usb.c **** /* Private define ------------------------------------------------------------*/
  51:Drivers/STM32F0xx_HAL_Driver/Src/stm32f0xx_ll_usb.c **** /* Private macro -------------------------------------------------------------*/
  52:Drivers/STM32F0xx_HAL_Driver/Src/stm32f0xx_ll_usb.c **** /* Private variables ---------------------------------------------------------*/
  53:Drivers/STM32F0xx_HAL_Driver/Src/stm32f0xx_ll_usb.c **** /* Private function prototypes -----------------------------------------------*/
  54:Drivers/STM32F0xx_HAL_Driver/Src/stm32f0xx_ll_usb.c **** /* Private functions ---------------------------------------------------------*/
  55:Drivers/STM32F0xx_HAL_Driver/Src/stm32f0xx_ll_usb.c **** 
  56:Drivers/STM32F0xx_HAL_Driver/Src/stm32f0xx_ll_usb.c **** 
  57:Drivers/STM32F0xx_HAL_Driver/Src/stm32f0xx_ll_usb.c **** /**
  58:Drivers/STM32F0xx_HAL_Driver/Src/stm32f0xx_ll_usb.c ****   * @brief  Initializes the USB Core
  59:Drivers/STM32F0xx_HAL_Driver/Src/stm32f0xx_ll_usb.c ****   * @param  USBx USB Instance
  60:Drivers/STM32F0xx_HAL_Driver/Src/stm32f0xx_ll_usb.c ****   * @param  cfg pointer to a USB_CfgTypeDef structure that contains
  61:Drivers/STM32F0xx_HAL_Driver/Src/stm32f0xx_ll_usb.c ****   *         the configuration information for the specified USBx peripheral.
  62:Drivers/STM32F0xx_HAL_Driver/Src/stm32f0xx_ll_usb.c ****   * @retval HAL status
  63:Drivers/STM32F0xx_HAL_Driver/Src/stm32f0xx_ll_usb.c ****   */
  64:Drivers/STM32F0xx_HAL_Driver/Src/stm32f0xx_ll_usb.c **** HAL_StatusTypeDef USB_CoreInit(USB_TypeDef *USBx, USB_CfgTypeDef cfg)
  65:Drivers/STM32F0xx_HAL_Driver/Src/stm32f0xx_ll_usb.c **** {
  28              		.loc 1 65 1 view -0
  29              		.cfi_startproc
  30              		@ args = 36, pretend = 16, frame = 0
  31              		@ frame_needed = 0, uses_anonymous_args = 0
  32              		@ link register save eliminated.
  33              		.loc 1 65 1 is_stmt 0 view .LVU1
  34 0000 84B0     		sub	sp, sp, #16
  35              	.LCFI0:
  36              		.cfi_def_cfa_offset 16
  37 0002 0191     		str	r1, [sp, #4]
  38 0004 0292     		str	r2, [sp, #8]
  39 0006 0393     		str	r3, [sp, #12]
  66:Drivers/STM32F0xx_HAL_Driver/Src/stm32f0xx_ll_usb.c ****   /* Prevent unused argument(s) compilation warning */
  67:Drivers/STM32F0xx_HAL_Driver/Src/stm32f0xx_ll_usb.c ****   UNUSED(USBx);
  40              		.loc 1 67 3 is_stmt 1 view .LVU2
  68:Drivers/STM32F0xx_HAL_Driver/Src/stm32f0xx_ll_usb.c ****   UNUSED(cfg);
  41              		.loc 1 68 3 view .LVU3
  69:Drivers/STM32F0xx_HAL_Driver/Src/stm32f0xx_ll_usb.c **** 
  70:Drivers/STM32F0xx_HAL_Driver/Src/stm32f0xx_ll_usb.c ****   /* NOTE : - This function is not required by USB Device FS peripheral, it is used
  71:Drivers/STM32F0xx_HAL_Driver/Src/stm32f0xx_ll_usb.c ****               only by USB OTG FS peripheral.
  72:Drivers/STM32F0xx_HAL_Driver/Src/stm32f0xx_ll_usb.c ****             - This function is added to ensure compatibility across platforms.
  73:Drivers/STM32F0xx_HAL_Driver/Src/stm32f0xx_ll_usb.c ****    */
  74:Drivers/STM32F0xx_HAL_Driver/Src/stm32f0xx_ll_usb.c **** 
ARM GAS  /tmp/cclsNgIg.s 			page 3


  75:Drivers/STM32F0xx_HAL_Driver/Src/stm32f0xx_ll_usb.c ****   return HAL_OK;
  42              		.loc 1 75 3 view .LVU4
  76:Drivers/STM32F0xx_HAL_Driver/Src/stm32f0xx_ll_usb.c **** }
  43              		.loc 1 76 1 is_stmt 0 view .LVU5
  44 0008 0020     		movs	r0, #0
  45              	.LVL1:
  46              		.loc 1 76 1 view .LVU6
  47              		@ sp needed
  48 000a 04B0     		add	sp, sp, #16
  49 000c 7047     		bx	lr
  50              		.cfi_endproc
  51              	.LFE40:
  53              		.section	.text.USB_EnableGlobalInt,"ax",%progbits
  54              		.align	1
  55              		.global	USB_EnableGlobalInt
  56              		.syntax unified
  57              		.code	16
  58              		.thumb_func
  59              		.fpu softvfp
  61              	USB_EnableGlobalInt:
  62              	.LVL2:
  63              	.LFB41:
  77:Drivers/STM32F0xx_HAL_Driver/Src/stm32f0xx_ll_usb.c **** 
  78:Drivers/STM32F0xx_HAL_Driver/Src/stm32f0xx_ll_usb.c **** /**
  79:Drivers/STM32F0xx_HAL_Driver/Src/stm32f0xx_ll_usb.c ****   * @brief  USB_EnableGlobalInt
  80:Drivers/STM32F0xx_HAL_Driver/Src/stm32f0xx_ll_usb.c ****   *         Enables the controller's Global Int in the AHB Config reg
  81:Drivers/STM32F0xx_HAL_Driver/Src/stm32f0xx_ll_usb.c ****   * @param  USBx Selected device
  82:Drivers/STM32F0xx_HAL_Driver/Src/stm32f0xx_ll_usb.c ****   * @retval HAL status
  83:Drivers/STM32F0xx_HAL_Driver/Src/stm32f0xx_ll_usb.c ****   */
  84:Drivers/STM32F0xx_HAL_Driver/Src/stm32f0xx_ll_usb.c **** HAL_StatusTypeDef USB_EnableGlobalInt(USB_TypeDef *USBx)
  85:Drivers/STM32F0xx_HAL_Driver/Src/stm32f0xx_ll_usb.c **** {
  64              		.loc 1 85 1 is_stmt 1 view -0
  65              		.cfi_startproc
  66              		@ args = 0, pretend = 0, frame = 0
  67              		@ frame_needed = 0, uses_anonymous_args = 0
  68              		@ link register save eliminated.
  86:Drivers/STM32F0xx_HAL_Driver/Src/stm32f0xx_ll_usb.c ****   uint32_t winterruptmask;
  69              		.loc 1 86 3 view .LVU8
  87:Drivers/STM32F0xx_HAL_Driver/Src/stm32f0xx_ll_usb.c **** 
  88:Drivers/STM32F0xx_HAL_Driver/Src/stm32f0xx_ll_usb.c ****   /* Clear pending interrupts */
  89:Drivers/STM32F0xx_HAL_Driver/Src/stm32f0xx_ll_usb.c ****   USBx->ISTR = 0U;
  70              		.loc 1 89 3 view .LVU9
  71              		.loc 1 89 14 is_stmt 0 view .LVU10
  72 0000 4423     		movs	r3, #68
  73 0002 0022     		movs	r2, #0
  74 0004 C252     		strh	r2, [r0, r3]
  90:Drivers/STM32F0xx_HAL_Driver/Src/stm32f0xx_ll_usb.c **** 
  91:Drivers/STM32F0xx_HAL_Driver/Src/stm32f0xx_ll_usb.c ****   /* Set winterruptmask variable */
  92:Drivers/STM32F0xx_HAL_Driver/Src/stm32f0xx_ll_usb.c ****   winterruptmask = USB_CNTR_CTRM  | USB_CNTR_WKUPM |
  75              		.loc 1 92 3 is_stmt 1 view .LVU11
  76              	.LVL3:
  93:Drivers/STM32F0xx_HAL_Driver/Src/stm32f0xx_ll_usb.c ****                    USB_CNTR_SUSPM | USB_CNTR_ERRM |
  94:Drivers/STM32F0xx_HAL_Driver/Src/stm32f0xx_ll_usb.c ****                    USB_CNTR_SOFM | USB_CNTR_ESOFM |
  95:Drivers/STM32F0xx_HAL_Driver/Src/stm32f0xx_ll_usb.c ****                    USB_CNTR_RESETM | USB_CNTR_L1REQM;
  96:Drivers/STM32F0xx_HAL_Driver/Src/stm32f0xx_ll_usb.c **** 
  97:Drivers/STM32F0xx_HAL_Driver/Src/stm32f0xx_ll_usb.c ****   /* Set interrupt mask */
  98:Drivers/STM32F0xx_HAL_Driver/Src/stm32f0xx_ll_usb.c ****   USBx->CNTR = (uint16_t)winterruptmask;
ARM GAS  /tmp/cclsNgIg.s 			page 4


  77              		.loc 1 98 3 view .LVU12
  78              		.loc 1 98 14 is_stmt 0 view .LVU13
  79 0006 043B     		subs	r3, r3, #4
  80 0008 014A     		ldr	r2, .L3
  81 000a C252     		strh	r2, [r0, r3]
  99:Drivers/STM32F0xx_HAL_Driver/Src/stm32f0xx_ll_usb.c **** 
 100:Drivers/STM32F0xx_HAL_Driver/Src/stm32f0xx_ll_usb.c ****   return HAL_OK;
  82              		.loc 1 100 3 is_stmt 1 view .LVU14
 101:Drivers/STM32F0xx_HAL_Driver/Src/stm32f0xx_ll_usb.c **** }
  83              		.loc 1 101 1 is_stmt 0 view .LVU15
  84 000c 0020     		movs	r0, #0
  85              	.LVL4:
  86              		.loc 1 101 1 view .LVU16
  87              		@ sp needed
  88 000e 7047     		bx	lr
  89              	.L4:
  90              		.align	2
  91              	.L3:
  92 0010 80BFFFFF 		.word	-16512
  93              		.cfi_endproc
  94              	.LFE41:
  96              		.section	.text.USB_DisableGlobalInt,"ax",%progbits
  97              		.align	1
  98              		.global	USB_DisableGlobalInt
  99              		.syntax unified
 100              		.code	16
 101              		.thumb_func
 102              		.fpu softvfp
 104              	USB_DisableGlobalInt:
 105              	.LVL5:
 106              	.LFB42:
 102:Drivers/STM32F0xx_HAL_Driver/Src/stm32f0xx_ll_usb.c **** 
 103:Drivers/STM32F0xx_HAL_Driver/Src/stm32f0xx_ll_usb.c **** /**
 104:Drivers/STM32F0xx_HAL_Driver/Src/stm32f0xx_ll_usb.c ****   * @brief  USB_DisableGlobalInt
 105:Drivers/STM32F0xx_HAL_Driver/Src/stm32f0xx_ll_usb.c ****   *         Disable the controller's Global Int in the AHB Config reg
 106:Drivers/STM32F0xx_HAL_Driver/Src/stm32f0xx_ll_usb.c ****   * @param  USBx Selected device
 107:Drivers/STM32F0xx_HAL_Driver/Src/stm32f0xx_ll_usb.c ****   * @retval HAL status
 108:Drivers/STM32F0xx_HAL_Driver/Src/stm32f0xx_ll_usb.c ****   */
 109:Drivers/STM32F0xx_HAL_Driver/Src/stm32f0xx_ll_usb.c **** HAL_StatusTypeDef USB_DisableGlobalInt(USB_TypeDef *USBx)
 110:Drivers/STM32F0xx_HAL_Driver/Src/stm32f0xx_ll_usb.c **** {
 107              		.loc 1 110 1 is_stmt 1 view -0
 108              		.cfi_startproc
 109              		@ args = 0, pretend = 0, frame = 0
 110              		@ frame_needed = 0, uses_anonymous_args = 0
 111              		@ link register save eliminated.
 111:Drivers/STM32F0xx_HAL_Driver/Src/stm32f0xx_ll_usb.c ****   uint32_t winterruptmask;
 112              		.loc 1 111 3 view .LVU18
 112:Drivers/STM32F0xx_HAL_Driver/Src/stm32f0xx_ll_usb.c **** 
 113:Drivers/STM32F0xx_HAL_Driver/Src/stm32f0xx_ll_usb.c ****   /* Set winterruptmask variable */
 114:Drivers/STM32F0xx_HAL_Driver/Src/stm32f0xx_ll_usb.c ****   winterruptmask = USB_CNTR_CTRM  | USB_CNTR_WKUPM |
 113              		.loc 1 114 3 view .LVU19
 115:Drivers/STM32F0xx_HAL_Driver/Src/stm32f0xx_ll_usb.c ****                    USB_CNTR_SUSPM | USB_CNTR_ERRM |
 116:Drivers/STM32F0xx_HAL_Driver/Src/stm32f0xx_ll_usb.c ****                    USB_CNTR_SOFM | USB_CNTR_ESOFM |
 117:Drivers/STM32F0xx_HAL_Driver/Src/stm32f0xx_ll_usb.c ****                    USB_CNTR_RESETM | USB_CNTR_L1REQM;
 118:Drivers/STM32F0xx_HAL_Driver/Src/stm32f0xx_ll_usb.c **** 
 119:Drivers/STM32F0xx_HAL_Driver/Src/stm32f0xx_ll_usb.c ****   /* Clear interrupt mask */
 120:Drivers/STM32F0xx_HAL_Driver/Src/stm32f0xx_ll_usb.c ****   USBx->CNTR &= (uint16_t)(~winterruptmask);
ARM GAS  /tmp/cclsNgIg.s 			page 5


 114              		.loc 1 120 3 view .LVU20
 115              		.loc 1 120 14 is_stmt 0 view .LVU21
 116 0000 4022     		movs	r2, #64
 117 0002 835A     		ldrh	r3, [r0, r2]
 118 0004 0249     		ldr	r1, .L6
 119 0006 0B40     		ands	r3, r1
 120 0008 8352     		strh	r3, [r0, r2]
 121:Drivers/STM32F0xx_HAL_Driver/Src/stm32f0xx_ll_usb.c **** 
 122:Drivers/STM32F0xx_HAL_Driver/Src/stm32f0xx_ll_usb.c ****   return HAL_OK;
 121              		.loc 1 122 3 is_stmt 1 view .LVU22
 123:Drivers/STM32F0xx_HAL_Driver/Src/stm32f0xx_ll_usb.c **** }
 122              		.loc 1 123 1 is_stmt 0 view .LVU23
 123 000a 0020     		movs	r0, #0
 124              	.LVL6:
 125              		.loc 1 123 1 view .LVU24
 126              		@ sp needed
 127 000c 7047     		bx	lr
 128              	.L7:
 129 000e C046     		.align	2
 130              	.L6:
 131 0010 7F400000 		.word	16511
 132              		.cfi_endproc
 133              	.LFE42:
 135              		.section	.text.USB_SetCurrentMode,"ax",%progbits
 136              		.align	1
 137              		.global	USB_SetCurrentMode
 138              		.syntax unified
 139              		.code	16
 140              		.thumb_func
 141              		.fpu softvfp
 143              	USB_SetCurrentMode:
 144              	.LVL7:
 145              	.LFB43:
 124:Drivers/STM32F0xx_HAL_Driver/Src/stm32f0xx_ll_usb.c **** 
 125:Drivers/STM32F0xx_HAL_Driver/Src/stm32f0xx_ll_usb.c **** /**
 126:Drivers/STM32F0xx_HAL_Driver/Src/stm32f0xx_ll_usb.c ****   * @brief  USB_SetCurrentMode Set functional mode
 127:Drivers/STM32F0xx_HAL_Driver/Src/stm32f0xx_ll_usb.c ****   * @param  USBx Selected device
 128:Drivers/STM32F0xx_HAL_Driver/Src/stm32f0xx_ll_usb.c ****   * @param  mode current core mode
 129:Drivers/STM32F0xx_HAL_Driver/Src/stm32f0xx_ll_usb.c ****   *          This parameter can be one of the these values:
 130:Drivers/STM32F0xx_HAL_Driver/Src/stm32f0xx_ll_usb.c ****   *            @arg USB_DEVICE_MODE Peripheral mode
 131:Drivers/STM32F0xx_HAL_Driver/Src/stm32f0xx_ll_usb.c ****   * @retval HAL status
 132:Drivers/STM32F0xx_HAL_Driver/Src/stm32f0xx_ll_usb.c ****   */
 133:Drivers/STM32F0xx_HAL_Driver/Src/stm32f0xx_ll_usb.c **** HAL_StatusTypeDef USB_SetCurrentMode(USB_TypeDef *USBx, USB_ModeTypeDef mode)
 134:Drivers/STM32F0xx_HAL_Driver/Src/stm32f0xx_ll_usb.c **** {
 146              		.loc 1 134 1 is_stmt 1 view -0
 147              		.cfi_startproc
 148              		@ args = 0, pretend = 0, frame = 0
 149              		@ frame_needed = 0, uses_anonymous_args = 0
 150              		@ link register save eliminated.
 135:Drivers/STM32F0xx_HAL_Driver/Src/stm32f0xx_ll_usb.c ****   /* Prevent unused argument(s) compilation warning */
 136:Drivers/STM32F0xx_HAL_Driver/Src/stm32f0xx_ll_usb.c ****   UNUSED(USBx);
 151              		.loc 1 136 3 view .LVU26
 137:Drivers/STM32F0xx_HAL_Driver/Src/stm32f0xx_ll_usb.c ****   UNUSED(mode);
 152              		.loc 1 137 3 view .LVU27
 138:Drivers/STM32F0xx_HAL_Driver/Src/stm32f0xx_ll_usb.c **** 
 139:Drivers/STM32F0xx_HAL_Driver/Src/stm32f0xx_ll_usb.c ****   /* NOTE : - This function is not required by USB Device FS peripheral, it is used
 140:Drivers/STM32F0xx_HAL_Driver/Src/stm32f0xx_ll_usb.c ****               only by USB OTG FS peripheral.
ARM GAS  /tmp/cclsNgIg.s 			page 6


 141:Drivers/STM32F0xx_HAL_Driver/Src/stm32f0xx_ll_usb.c ****             - This function is added to ensure compatibility across platforms.
 142:Drivers/STM32F0xx_HAL_Driver/Src/stm32f0xx_ll_usb.c ****    */
 143:Drivers/STM32F0xx_HAL_Driver/Src/stm32f0xx_ll_usb.c ****   return HAL_OK;
 153              		.loc 1 143 3 view .LVU28
 144:Drivers/STM32F0xx_HAL_Driver/Src/stm32f0xx_ll_usb.c **** }
 154              		.loc 1 144 1 is_stmt 0 view .LVU29
 155 0000 0020     		movs	r0, #0
 156              	.LVL8:
 157              		.loc 1 144 1 view .LVU30
 158              		@ sp needed
 159 0002 7047     		bx	lr
 160              		.cfi_endproc
 161              	.LFE43:
 163              		.section	.text.USB_DevInit,"ax",%progbits
 164              		.align	1
 165              		.global	USB_DevInit
 166              		.syntax unified
 167              		.code	16
 168              		.thumb_func
 169              		.fpu softvfp
 171              	USB_DevInit:
 172              	.LVL9:
 173              	.LFB44:
 145:Drivers/STM32F0xx_HAL_Driver/Src/stm32f0xx_ll_usb.c **** 
 146:Drivers/STM32F0xx_HAL_Driver/Src/stm32f0xx_ll_usb.c **** /**
 147:Drivers/STM32F0xx_HAL_Driver/Src/stm32f0xx_ll_usb.c ****   * @brief  USB_DevInit Initializes the USB controller registers
 148:Drivers/STM32F0xx_HAL_Driver/Src/stm32f0xx_ll_usb.c ****   *         for device mode
 149:Drivers/STM32F0xx_HAL_Driver/Src/stm32f0xx_ll_usb.c ****   * @param  USBx Selected device
 150:Drivers/STM32F0xx_HAL_Driver/Src/stm32f0xx_ll_usb.c ****   * @param  cfg  pointer to a USB_CfgTypeDef structure that contains
 151:Drivers/STM32F0xx_HAL_Driver/Src/stm32f0xx_ll_usb.c ****   *         the configuration information for the specified USBx peripheral.
 152:Drivers/STM32F0xx_HAL_Driver/Src/stm32f0xx_ll_usb.c ****   * @retval HAL status
 153:Drivers/STM32F0xx_HAL_Driver/Src/stm32f0xx_ll_usb.c ****   */
 154:Drivers/STM32F0xx_HAL_Driver/Src/stm32f0xx_ll_usb.c **** HAL_StatusTypeDef USB_DevInit(USB_TypeDef *USBx, USB_CfgTypeDef cfg)
 155:Drivers/STM32F0xx_HAL_Driver/Src/stm32f0xx_ll_usb.c **** {
 174              		.loc 1 155 1 is_stmt 1 view -0
 175              		.cfi_startproc
 176              		@ args = 36, pretend = 16, frame = 0
 177              		@ frame_needed = 0, uses_anonymous_args = 0
 178              		@ link register save eliminated.
 179              		.loc 1 155 1 is_stmt 0 view .LVU32
 180 0000 84B0     		sub	sp, sp, #16
 181              	.LCFI1:
 182              		.cfi_def_cfa_offset 16
 183 0002 0191     		str	r1, [sp, #4]
 184 0004 0292     		str	r2, [sp, #8]
 185 0006 0393     		str	r3, [sp, #12]
 156:Drivers/STM32F0xx_HAL_Driver/Src/stm32f0xx_ll_usb.c ****   /* Prevent unused argument(s) compilation warning */
 157:Drivers/STM32F0xx_HAL_Driver/Src/stm32f0xx_ll_usb.c ****   UNUSED(cfg);
 186              		.loc 1 157 3 is_stmt 1 view .LVU33
 158:Drivers/STM32F0xx_HAL_Driver/Src/stm32f0xx_ll_usb.c **** 
 159:Drivers/STM32F0xx_HAL_Driver/Src/stm32f0xx_ll_usb.c ****   /* Init Device */
 160:Drivers/STM32F0xx_HAL_Driver/Src/stm32f0xx_ll_usb.c ****   /* CNTR_FRES = 1 */
 161:Drivers/STM32F0xx_HAL_Driver/Src/stm32f0xx_ll_usb.c ****   USBx->CNTR = (uint16_t)USB_CNTR_FRES;
 187              		.loc 1 161 3 view .LVU34
 188              		.loc 1 161 14 is_stmt 0 view .LVU35
 189 0008 4022     		movs	r2, #64
 190 000a 0123     		movs	r3, #1
ARM GAS  /tmp/cclsNgIg.s 			page 7


 191 000c 8352     		strh	r3, [r0, r2]
 162:Drivers/STM32F0xx_HAL_Driver/Src/stm32f0xx_ll_usb.c **** 
 163:Drivers/STM32F0xx_HAL_Driver/Src/stm32f0xx_ll_usb.c ****   /* CNTR_FRES = 0 */
 164:Drivers/STM32F0xx_HAL_Driver/Src/stm32f0xx_ll_usb.c ****   USBx->CNTR = 0U;
 192              		.loc 1 164 3 is_stmt 1 view .LVU36
 193              		.loc 1 164 14 is_stmt 0 view .LVU37
 194 000e 0023     		movs	r3, #0
 195 0010 8352     		strh	r3, [r0, r2]
 165:Drivers/STM32F0xx_HAL_Driver/Src/stm32f0xx_ll_usb.c **** 
 166:Drivers/STM32F0xx_HAL_Driver/Src/stm32f0xx_ll_usb.c ****   /* Clear pending interrupts */
 167:Drivers/STM32F0xx_HAL_Driver/Src/stm32f0xx_ll_usb.c ****   USBx->ISTR = 0U;
 196              		.loc 1 167 3 is_stmt 1 view .LVU38
 197              		.loc 1 167 14 is_stmt 0 view .LVU39
 198 0012 0432     		adds	r2, r2, #4
 199 0014 8352     		strh	r3, [r0, r2]
 168:Drivers/STM32F0xx_HAL_Driver/Src/stm32f0xx_ll_usb.c **** 
 169:Drivers/STM32F0xx_HAL_Driver/Src/stm32f0xx_ll_usb.c ****   /*Set Btable Address*/
 170:Drivers/STM32F0xx_HAL_Driver/Src/stm32f0xx_ll_usb.c ****   USBx->BTABLE = BTABLE_ADDRESS;
 200              		.loc 1 170 3 is_stmt 1 view .LVU40
 201              		.loc 1 170 16 is_stmt 0 view .LVU41
 202 0016 0C32     		adds	r2, r2, #12
 203 0018 8352     		strh	r3, [r0, r2]
 171:Drivers/STM32F0xx_HAL_Driver/Src/stm32f0xx_ll_usb.c **** 
 172:Drivers/STM32F0xx_HAL_Driver/Src/stm32f0xx_ll_usb.c ****   return HAL_OK;
 204              		.loc 1 172 3 is_stmt 1 view .LVU42
 173:Drivers/STM32F0xx_HAL_Driver/Src/stm32f0xx_ll_usb.c **** }
 205              		.loc 1 173 1 is_stmt 0 view .LVU43
 206 001a 0020     		movs	r0, #0
 207              	.LVL10:
 208              		.loc 1 173 1 view .LVU44
 209              		@ sp needed
 210 001c 04B0     		add	sp, sp, #16
 211 001e 7047     		bx	lr
 212              		.cfi_endproc
 213              	.LFE44:
 215              		.section	.text.USB_ActivateEndpoint,"ax",%progbits
 216              		.align	1
 217              		.global	USB_ActivateEndpoint
 218              		.syntax unified
 219              		.code	16
 220              		.thumb_func
 221              		.fpu softvfp
 223              	USB_ActivateEndpoint:
 224              	.LVL11:
 225              	.LFB45:
 174:Drivers/STM32F0xx_HAL_Driver/Src/stm32f0xx_ll_usb.c **** 
 175:Drivers/STM32F0xx_HAL_Driver/Src/stm32f0xx_ll_usb.c **** /**
 176:Drivers/STM32F0xx_HAL_Driver/Src/stm32f0xx_ll_usb.c ****   * @brief  Activate and configure an endpoint
 177:Drivers/STM32F0xx_HAL_Driver/Src/stm32f0xx_ll_usb.c ****   * @param  USBx Selected device
 178:Drivers/STM32F0xx_HAL_Driver/Src/stm32f0xx_ll_usb.c ****   * @param  ep pointer to endpoint structure
 179:Drivers/STM32F0xx_HAL_Driver/Src/stm32f0xx_ll_usb.c ****   * @retval HAL status
 180:Drivers/STM32F0xx_HAL_Driver/Src/stm32f0xx_ll_usb.c ****   */
 181:Drivers/STM32F0xx_HAL_Driver/Src/stm32f0xx_ll_usb.c **** HAL_StatusTypeDef USB_ActivateEndpoint(USB_TypeDef *USBx, USB_EPTypeDef *ep)
 182:Drivers/STM32F0xx_HAL_Driver/Src/stm32f0xx_ll_usb.c **** {
 226              		.loc 1 182 1 is_stmt 1 view -0
 227              		.cfi_startproc
 228              		@ args = 0, pretend = 0, frame = 0
ARM GAS  /tmp/cclsNgIg.s 			page 8


 229              		@ frame_needed = 0, uses_anonymous_args = 0
 230              		.loc 1 182 1 is_stmt 0 view .LVU46
 231 0000 F0B5     		push	{r4, r5, r6, r7, lr}
 232              	.LCFI2:
 233              		.cfi_def_cfa_offset 20
 234              		.cfi_offset 4, -20
 235              		.cfi_offset 5, -16
 236              		.cfi_offset 6, -12
 237              		.cfi_offset 7, -8
 238              		.cfi_offset 14, -4
 239 0002 0300     		movs	r3, r0
 183:Drivers/STM32F0xx_HAL_Driver/Src/stm32f0xx_ll_usb.c ****   HAL_StatusTypeDef ret = HAL_OK;
 240              		.loc 1 183 3 is_stmt 1 view .LVU47
 241              	.LVL12:
 184:Drivers/STM32F0xx_HAL_Driver/Src/stm32f0xx_ll_usb.c ****   uint16_t wEpRegVal;
 242              		.loc 1 184 3 view .LVU48
 185:Drivers/STM32F0xx_HAL_Driver/Src/stm32f0xx_ll_usb.c **** 
 186:Drivers/STM32F0xx_HAL_Driver/Src/stm32f0xx_ll_usb.c ****   wEpRegVal = PCD_GET_ENDPOINT(USBx, ep->num) & USB_EP_T_MASK;
 243              		.loc 1 186 3 view .LVU49
 244              		.loc 1 186 15 is_stmt 0 view .LVU50
 245 0004 0D78     		ldrb	r5, [r1]
 246 0006 AD00     		lsls	r5, r5, #2
 247 0008 4519     		adds	r5, r0, r5
 248              		.loc 1 186 47 view .LVU51
 249 000a 2A88     		ldrh	r2, [r5]
 250              		.loc 1 186 13 view .LVU52
 251 000c AA48     		ldr	r0, .L37
 252              	.LVL13:
 253              		.loc 1 186 13 view .LVU53
 254 000e 0240     		ands	r2, r0
 255              	.LVL14:
 187:Drivers/STM32F0xx_HAL_Driver/Src/stm32f0xx_ll_usb.c **** 
 188:Drivers/STM32F0xx_HAL_Driver/Src/stm32f0xx_ll_usb.c ****   /* initialize Endpoint */
 189:Drivers/STM32F0xx_HAL_Driver/Src/stm32f0xx_ll_usb.c ****   switch (ep->type)
 256              		.loc 1 189 3 is_stmt 1 view .LVU54
 257              		.loc 1 189 13 is_stmt 0 view .LVU55
 258 0010 C878     		ldrb	r0, [r1, #3]
 259              		.loc 1 189 3 view .LVU56
 260 0012 0228     		cmp	r0, #2
 261 0014 5AD0     		beq	.L34
 262 0016 0AD8     		bhi	.L12
 263 0018 0028     		cmp	r0, #0
 264 001a 53D0     		beq	.L13
 265 001c 0128     		cmp	r0, #1
 266 001e 04D1     		bne	.L35
 190:Drivers/STM32F0xx_HAL_Driver/Src/stm32f0xx_ll_usb.c ****   {
 191:Drivers/STM32F0xx_HAL_Driver/Src/stm32f0xx_ll_usb.c ****     case EP_TYPE_CTRL:
 192:Drivers/STM32F0xx_HAL_Driver/Src/stm32f0xx_ll_usb.c ****       wEpRegVal |= USB_EP_CONTROL;
 193:Drivers/STM32F0xx_HAL_Driver/Src/stm32f0xx_ll_usb.c ****       break;
 194:Drivers/STM32F0xx_HAL_Driver/Src/stm32f0xx_ll_usb.c **** 
 195:Drivers/STM32F0xx_HAL_Driver/Src/stm32f0xx_ll_usb.c ****     case EP_TYPE_BULK:
 196:Drivers/STM32F0xx_HAL_Driver/Src/stm32f0xx_ll_usb.c ****       wEpRegVal |= USB_EP_BULK;
 197:Drivers/STM32F0xx_HAL_Driver/Src/stm32f0xx_ll_usb.c ****       break;
 198:Drivers/STM32F0xx_HAL_Driver/Src/stm32f0xx_ll_usb.c **** 
 199:Drivers/STM32F0xx_HAL_Driver/Src/stm32f0xx_ll_usb.c ****     case EP_TYPE_INTR:
 200:Drivers/STM32F0xx_HAL_Driver/Src/stm32f0xx_ll_usb.c ****       wEpRegVal |= USB_EP_INTERRUPT;
 201:Drivers/STM32F0xx_HAL_Driver/Src/stm32f0xx_ll_usb.c ****       break;
ARM GAS  /tmp/cclsNgIg.s 			page 9


 202:Drivers/STM32F0xx_HAL_Driver/Src/stm32f0xx_ll_usb.c **** 
 203:Drivers/STM32F0xx_HAL_Driver/Src/stm32f0xx_ll_usb.c ****     case EP_TYPE_ISOC:
 204:Drivers/STM32F0xx_HAL_Driver/Src/stm32f0xx_ll_usb.c ****       wEpRegVal |= USB_EP_ISOCHRONOUS;
 267              		.loc 1 204 7 is_stmt 1 view .LVU57
 268              		.loc 1 204 17 is_stmt 0 view .LVU58
 269 0020 8020     		movs	r0, #128
 270 0022 C000     		lsls	r0, r0, #3
 271 0024 0243     		orrs	r2, r0
 272              	.LVL15:
 205:Drivers/STM32F0xx_HAL_Driver/Src/stm32f0xx_ll_usb.c ****       break;
 273              		.loc 1 205 7 is_stmt 1 view .LVU59
 183:Drivers/STM32F0xx_HAL_Driver/Src/stm32f0xx_ll_usb.c ****   uint16_t wEpRegVal;
 274              		.loc 1 183 21 is_stmt 0 view .LVU60
 275 0026 0020     		movs	r0, #0
 276              		.loc 1 205 7 view .LVU61
 277 0028 09E0     		b	.L11
 278              	.L35:
 206:Drivers/STM32F0xx_HAL_Driver/Src/stm32f0xx_ll_usb.c **** 
 207:Drivers/STM32F0xx_HAL_Driver/Src/stm32f0xx_ll_usb.c ****     default:
 208:Drivers/STM32F0xx_HAL_Driver/Src/stm32f0xx_ll_usb.c ****       ret = HAL_ERROR;
 279              		.loc 1 208 11 view .LVU62
 280 002a 0120     		movs	r0, #1
 281 002c 07E0     		b	.L11
 282              	.L12:
 189:Drivers/STM32F0xx_HAL_Driver/Src/stm32f0xx_ll_usb.c ****   {
 283              		.loc 1 189 3 view .LVU63
 284 002e 0328     		cmp	r0, #3
 285 0030 04D1     		bne	.L36
 200:Drivers/STM32F0xx_HAL_Driver/Src/stm32f0xx_ll_usb.c ****       break;
 286              		.loc 1 200 7 is_stmt 1 view .LVU64
 200:Drivers/STM32F0xx_HAL_Driver/Src/stm32f0xx_ll_usb.c ****       break;
 287              		.loc 1 200 17 is_stmt 0 view .LVU65
 288 0032 C020     		movs	r0, #192
 289 0034 C000     		lsls	r0, r0, #3
 290 0036 0243     		orrs	r2, r0
 291              	.LVL16:
 201:Drivers/STM32F0xx_HAL_Driver/Src/stm32f0xx_ll_usb.c **** 
 292              		.loc 1 201 7 is_stmt 1 view .LVU66
 183:Drivers/STM32F0xx_HAL_Driver/Src/stm32f0xx_ll_usb.c ****   uint16_t wEpRegVal;
 293              		.loc 1 183 21 is_stmt 0 view .LVU67
 294 0038 0020     		movs	r0, #0
 201:Drivers/STM32F0xx_HAL_Driver/Src/stm32f0xx_ll_usb.c **** 
 295              		.loc 1 201 7 view .LVU68
 296 003a 00E0     		b	.L11
 297              	.L36:
 298              		.loc 1 208 11 view .LVU69
 299 003c 0120     		movs	r0, #1
 300              	.L11:
 301              	.LVL17:
 209:Drivers/STM32F0xx_HAL_Driver/Src/stm32f0xx_ll_usb.c ****       break;
 210:Drivers/STM32F0xx_HAL_Driver/Src/stm32f0xx_ll_usb.c ****   }
 211:Drivers/STM32F0xx_HAL_Driver/Src/stm32f0xx_ll_usb.c **** 
 212:Drivers/STM32F0xx_HAL_Driver/Src/stm32f0xx_ll_usb.c ****   PCD_SET_ENDPOINT(USBx, ep->num, (wEpRegVal | USB_EP_CTR_RX | USB_EP_CTR_TX));
 302              		.loc 1 212 3 is_stmt 1 view .LVU70
 303 003e 9F4C     		ldr	r4, .L37+4
 304 0040 2243     		orrs	r2, r4
 305              	.LVL18:
ARM GAS  /tmp/cclsNgIg.s 			page 10


 306              		.loc 1 212 3 is_stmt 0 view .LVU71
 307 0042 92B2     		uxth	r2, r2
 308 0044 2A80     		strh	r2, [r5]
 213:Drivers/STM32F0xx_HAL_Driver/Src/stm32f0xx_ll_usb.c **** 
 214:Drivers/STM32F0xx_HAL_Driver/Src/stm32f0xx_ll_usb.c ****   PCD_SET_EP_ADDRESS(USBx, ep->num, ep->num);
 309              		.loc 1 214 3 is_stmt 1 view .LVU72
 310              	.LBB2:
 311              		.loc 1 214 3 view .LVU73
 312              		.loc 1 214 3 view .LVU74
 313 0046 0A78     		ldrb	r2, [r1]
 314 0048 9600     		lsls	r6, r2, #2
 315 004a 9E19     		adds	r6, r3, r6
 316 004c 3588     		ldrh	r5, [r6]
 317 004e 2DB2     		sxth	r5, r5
 318 0050 9B4F     		ldr	r7, .L37+8
 319 0052 3D40     		ands	r5, r7
 320 0054 2A43     		orrs	r2, r5
 321 0056 92B2     		uxth	r2, r2
 322              	.LVL19:
 323              		.loc 1 214 3 view .LVU75
 324 0058 1443     		orrs	r4, r2
 325 005a A4B2     		uxth	r4, r4
 326 005c 3480     		strh	r4, [r6]
 327              	.LBE2:
 328              		.loc 1 214 3 view .LVU76
 215:Drivers/STM32F0xx_HAL_Driver/Src/stm32f0xx_ll_usb.c **** 
 216:Drivers/STM32F0xx_HAL_Driver/Src/stm32f0xx_ll_usb.c ****   if (ep->doublebuffer == 0U)
 329              		.loc 1 216 3 view .LVU77
 330              		.loc 1 216 9 is_stmt 0 view .LVU78
 331 005e 0A7B     		ldrb	r2, [r1, #12]
 332              	.LVL20:
 333              		.loc 1 216 6 view .LVU79
 334 0060 002A     		cmp	r2, #0
 335 0062 00D0     		beq	.LCB256
 336 0064 90E0     		b	.L16	@long jump
 337              	.LCB256:
 217:Drivers/STM32F0xx_HAL_Driver/Src/stm32f0xx_ll_usb.c ****   {
 218:Drivers/STM32F0xx_HAL_Driver/Src/stm32f0xx_ll_usb.c ****     if (ep->is_in != 0U)
 338              		.loc 1 218 5 is_stmt 1 view .LVU80
 339              		.loc 1 218 11 is_stmt 0 view .LVU81
 340 0066 4A78     		ldrb	r2, [r1, #1]
 341              		.loc 1 218 8 view .LVU82
 342 0068 002A     		cmp	r2, #0
 343 006a 3CD0     		beq	.L17
 219:Drivers/STM32F0xx_HAL_Driver/Src/stm32f0xx_ll_usb.c ****     {
 220:Drivers/STM32F0xx_HAL_Driver/Src/stm32f0xx_ll_usb.c ****       /*Set the endpoint Transmit buffer address */
 221:Drivers/STM32F0xx_HAL_Driver/Src/stm32f0xx_ll_usb.c ****       PCD_SET_EP_TX_ADDRESS(USBx, ep->num, ep->pmaadress);
 344              		.loc 1 221 7 is_stmt 1 view .LVU83
 345              	.LBB3:
 346              		.loc 1 221 7 view .LVU84
 347              		.loc 1 221 7 view .LVU85
 348              	.LVL21:
 349              		.loc 1 221 7 view .LVU86
 350 006c 5022     		movs	r2, #80
 351 006e 9C5A     		ldrh	r4, [r3, r2]
 352 0070 1C19     		adds	r4, r3, r4
 353              	.LVL22:
ARM GAS  /tmp/cclsNgIg.s 			page 11


 354              		.loc 1 221 7 view .LVU87
 355 0072 0A78     		ldrb	r2, [r1]
 356 0074 D200     		lsls	r2, r2, #3
 357 0076 1219     		adds	r2, r2, r4
 358 0078 8024     		movs	r4, #128
 359              	.LVL23:
 360              		.loc 1 221 7 is_stmt 0 view .LVU88
 361 007a E400     		lsls	r4, r4, #3
 362 007c A446     		mov	ip, r4
 363 007e 6244     		add	r2, r2, ip
 364              	.LVL24:
 365              		.loc 1 221 7 is_stmt 1 view .LVU89
 366 0080 CC88     		ldrh	r4, [r1, #6]
 367 0082 6408     		lsrs	r4, r4, #1
 368 0084 6400     		lsls	r4, r4, #1
 369 0086 1480     		strh	r4, [r2]
 370              	.LBE3:
 371              		.loc 1 221 7 view .LVU90
 222:Drivers/STM32F0xx_HAL_Driver/Src/stm32f0xx_ll_usb.c ****       PCD_CLEAR_TX_DTOG(USBx, ep->num);
 372              		.loc 1 222 7 view .LVU91
 373              	.LBB4:
 374              		.loc 1 222 7 view .LVU92
 375              		.loc 1 222 7 view .LVU93
 376 0088 0A78     		ldrb	r2, [r1]
 377              	.LVL25:
 378              		.loc 1 222 7 is_stmt 0 view .LVU94
 379 008a 9200     		lsls	r2, r2, #2
 380 008c 9A18     		adds	r2, r3, r2
 381 008e 1488     		ldrh	r4, [r2]
 382              	.LVL26:
 383              		.loc 1 222 7 is_stmt 1 view .LVU95
 384 0090 6406     		lsls	r4, r4, #25
 385 0092 06D5     		bpl	.L18
 386              	.LVL27:
 387              		.loc 1 222 7 discriminator 1 view .LVU96
 388              	.LBB5:
 389              		.loc 1 222 7 discriminator 1 view .LVU97
 390              		.loc 1 222 7 discriminator 1 view .LVU98
 391 0094 1488     		ldrh	r4, [r2]
 392 0096 3D00     		movs	r5, r7
 393 0098 2540     		ands	r5, r4
 394              	.LVL28:
 395              		.loc 1 222 7 discriminator 1 view .LVU99
 396 009a 8A4C     		ldr	r4, .L37+12
 397 009c 2C43     		orrs	r4, r5
 398 009e A4B2     		uxth	r4, r4
 399 00a0 1480     		strh	r4, [r2]
 400              	.LVL29:
 401              	.L18:
 402              		.loc 1 222 7 is_stmt 0 discriminator 1 view .LVU100
 403              	.LBE5:
 404              		.loc 1 222 7 is_stmt 1 discriminator 3 view .LVU101
 405              	.LBE4:
 406              		.loc 1 222 7 discriminator 3 view .LVU102
 223:Drivers/STM32F0xx_HAL_Driver/Src/stm32f0xx_ll_usb.c **** 
 224:Drivers/STM32F0xx_HAL_Driver/Src/stm32f0xx_ll_usb.c ****       if (ep->type != EP_TYPE_ISOC)
 407              		.loc 1 224 7 discriminator 3 view .LVU103
ARM GAS  /tmp/cclsNgIg.s 			page 12


 408              		.loc 1 224 13 is_stmt 0 discriminator 3 view .LVU104
 409 00a2 CA78     		ldrb	r2, [r1, #3]
 410              		.loc 1 224 10 discriminator 3 view .LVU105
 411 00a4 012A     		cmp	r2, #1
 412 00a6 13D0     		beq	.L19
 225:Drivers/STM32F0xx_HAL_Driver/Src/stm32f0xx_ll_usb.c ****       {
 226:Drivers/STM32F0xx_HAL_Driver/Src/stm32f0xx_ll_usb.c ****         /* Configure NAK status for the Endpoint */
 227:Drivers/STM32F0xx_HAL_Driver/Src/stm32f0xx_ll_usb.c ****         PCD_SET_EP_TX_STATUS(USBx, ep->num, USB_EP_TX_NAK);
 413              		.loc 1 227 9 is_stmt 1 view .LVU106
 414              	.LBB6:
 415              		.loc 1 227 9 view .LVU107
 416              		.loc 1 227 9 view .LVU108
 417 00a8 0A78     		ldrb	r2, [r1]
 418 00aa 9200     		lsls	r2, r2, #2
 419 00ac 9B18     		adds	r3, r3, r2
 420              	.LVL30:
 421              		.loc 1 227 9 is_stmt 0 view .LVU109
 422 00ae 1A88     		ldrh	r2, [r3]
 423 00b0 8549     		ldr	r1, .L37+16
 424              	.LVL31:
 425              		.loc 1 227 9 view .LVU110
 426 00b2 0A40     		ands	r2, r1
 427              	.LVL32:
 428              		.loc 1 227 9 is_stmt 1 view .LVU111
 429              		.loc 1 227 9 view .LVU112
 430              		.loc 1 227 9 view .LVU113
 431 00b4 2021     		movs	r1, #32
 432 00b6 4A40     		eors	r2, r1
 433              	.LVL33:
 434              		.loc 1 227 9 is_stmt 0 view .LVU114
 435 00b8 92B2     		uxth	r2, r2
 436              	.LVL34:
 437              		.loc 1 227 9 is_stmt 1 view .LVU115
 438 00ba 8049     		ldr	r1, .L37+4
 439 00bc 0A43     		orrs	r2, r1
 440              	.LVL35:
 441              		.loc 1 227 9 is_stmt 0 view .LVU116
 442 00be 92B2     		uxth	r2, r2
 443 00c0 1A80     		strh	r2, [r3]
 444              	.LBE6:
 445              		.loc 1 227 9 is_stmt 1 view .LVU117
 446 00c2 4BE0     		b	.L20
 447              	.LVL36:
 448              	.L13:
 192:Drivers/STM32F0xx_HAL_Driver/Src/stm32f0xx_ll_usb.c ****       break;
 449              		.loc 1 192 7 view .LVU118
 192:Drivers/STM32F0xx_HAL_Driver/Src/stm32f0xx_ll_usb.c ****       break;
 450              		.loc 1 192 17 is_stmt 0 view .LVU119
 451 00c4 8024     		movs	r4, #128
 452 00c6 A400     		lsls	r4, r4, #2
 453 00c8 2243     		orrs	r2, r4
 454              	.LVL37:
 193:Drivers/STM32F0xx_HAL_Driver/Src/stm32f0xx_ll_usb.c **** 
 455              		.loc 1 193 7 is_stmt 1 view .LVU120
 456 00ca B8E7     		b	.L11
 457              	.L34:
 189:Drivers/STM32F0xx_HAL_Driver/Src/stm32f0xx_ll_usb.c ****   {
ARM GAS  /tmp/cclsNgIg.s 			page 13


 458              		.loc 1 189 3 is_stmt 0 view .LVU121
 459 00cc 0020     		movs	r0, #0
 460 00ce B6E7     		b	.L11
 461              	.LVL38:
 462              	.L19:
 228:Drivers/STM32F0xx_HAL_Driver/Src/stm32f0xx_ll_usb.c ****       }
 229:Drivers/STM32F0xx_HAL_Driver/Src/stm32f0xx_ll_usb.c ****       else
 230:Drivers/STM32F0xx_HAL_Driver/Src/stm32f0xx_ll_usb.c ****       {
 231:Drivers/STM32F0xx_HAL_Driver/Src/stm32f0xx_ll_usb.c ****         /* Configure TX Endpoint to disabled state */
 232:Drivers/STM32F0xx_HAL_Driver/Src/stm32f0xx_ll_usb.c ****         PCD_SET_EP_TX_STATUS(USBx, ep->num, USB_EP_TX_DIS);
 463              		.loc 1 232 9 is_stmt 1 view .LVU122
 464              	.LBB7:
 465              		.loc 1 232 9 view .LVU123
 466              		.loc 1 232 9 view .LVU124
 467 00d0 0A78     		ldrb	r2, [r1]
 468 00d2 9200     		lsls	r2, r2, #2
 469 00d4 9B18     		adds	r3, r3, r2
 470              	.LVL39:
 471              		.loc 1 232 9 is_stmt 0 view .LVU125
 472 00d6 1A88     		ldrh	r2, [r3]
 473 00d8 7B49     		ldr	r1, .L37+16
 474              	.LVL40:
 475              		.loc 1 232 9 view .LVU126
 476 00da 1140     		ands	r1, r2
 477              	.LVL41:
 478              		.loc 1 232 9 is_stmt 1 view .LVU127
 479              		.loc 1 232 9 view .LVU128
 480              		.loc 1 232 9 view .LVU129
 481 00dc 774A     		ldr	r2, .L37+4
 482 00de 0A43     		orrs	r2, r1
 483 00e0 92B2     		uxth	r2, r2
 484 00e2 1A80     		strh	r2, [r3]
 485 00e4 3AE0     		b	.L20
 486              	.LVL42:
 487              	.L17:
 488              		.loc 1 232 9 is_stmt 0 view .LVU130
 489              	.LBE7:
 233:Drivers/STM32F0xx_HAL_Driver/Src/stm32f0xx_ll_usb.c ****       }
 234:Drivers/STM32F0xx_HAL_Driver/Src/stm32f0xx_ll_usb.c ****     }
 235:Drivers/STM32F0xx_HAL_Driver/Src/stm32f0xx_ll_usb.c ****     else
 236:Drivers/STM32F0xx_HAL_Driver/Src/stm32f0xx_ll_usb.c ****     {
 237:Drivers/STM32F0xx_HAL_Driver/Src/stm32f0xx_ll_usb.c ****       /*Set the endpoint Receive buffer address */
 238:Drivers/STM32F0xx_HAL_Driver/Src/stm32f0xx_ll_usb.c ****       PCD_SET_EP_RX_ADDRESS(USBx, ep->num, ep->pmaadress);
 490              		.loc 1 238 7 is_stmt 1 view .LVU131
 491              	.LBB8:
 492              		.loc 1 238 7 view .LVU132
 493              		.loc 1 238 7 view .LVU133
 494              		.loc 1 238 7 view .LVU134
 495 00e6 5025     		movs	r5, #80
 496 00e8 5C5B     		ldrh	r4, [r3, r5]
 497 00ea 1C19     		adds	r4, r3, r4
 498              	.LVL43:
 499              		.loc 1 238 7 view .LVU135
 500 00ec 0A78     		ldrb	r2, [r1]
 501 00ee D200     		lsls	r2, r2, #3
 502 00f0 1219     		adds	r2, r2, r4
 503 00f2 764C     		ldr	r4, .L37+20
ARM GAS  /tmp/cclsNgIg.s 			page 14


 504              	.LVL44:
 505              		.loc 1 238 7 is_stmt 0 view .LVU136
 506 00f4 A446     		mov	ip, r4
 507 00f6 6244     		add	r2, r2, ip
 508              	.LVL45:
 509              		.loc 1 238 7 is_stmt 1 view .LVU137
 510 00f8 CC88     		ldrh	r4, [r1, #6]
 511 00fa 6408     		lsrs	r4, r4, #1
 512 00fc 6400     		lsls	r4, r4, #1
 513 00fe 1480     		strh	r4, [r2]
 514              	.LBE8:
 515              		.loc 1 238 7 view .LVU138
 239:Drivers/STM32F0xx_HAL_Driver/Src/stm32f0xx_ll_usb.c **** 
 240:Drivers/STM32F0xx_HAL_Driver/Src/stm32f0xx_ll_usb.c ****       /*Set the endpoint Receive buffer counter*/
 241:Drivers/STM32F0xx_HAL_Driver/Src/stm32f0xx_ll_usb.c ****       PCD_SET_EP_RX_CNT(USBx, ep->num, ep->maxpacket);
 516              		.loc 1 241 7 view .LVU139
 517              	.LBB9:
 518              		.loc 1 241 7 view .LVU140
 519              	.LVL46:
 520              		.loc 1 241 7 view .LVU141
 521              		.loc 1 241 7 view .LVU142
 522 0100 5C5B     		ldrh	r4, [r3, r5]
 523 0102 1C19     		adds	r4, r3, r4
 524              	.LVL47:
 525              		.loc 1 241 7 view .LVU143
 526 0104 0A78     		ldrb	r2, [r1]
 527              	.LVL48:
 528              		.loc 1 241 7 is_stmt 0 view .LVU144
 529 0106 D200     		lsls	r2, r2, #3
 530 0108 1219     		adds	r2, r2, r4
 531 010a 714C     		ldr	r4, .L37+24
 532              	.LVL49:
 533              		.loc 1 241 7 view .LVU145
 534 010c A446     		mov	ip, r4
 535 010e 6244     		add	r2, r2, ip
 536              	.LVL50:
 537              		.loc 1 241 7 is_stmt 1 view .LVU146
 538              	.LBB10:
 539              		.loc 1 241 7 view .LVU147
 540              		.loc 1 241 7 view .LVU148
 541 0110 0C69     		ldr	r4, [r1, #16]
 542 0112 002C     		cmp	r4, #0
 543 0114 23D1     		bne	.L21
 544              		.loc 1 241 7 discriminator 1 view .LVU149
 545 0116 1488     		ldrh	r4, [r2]
 546 0118 6E4D     		ldr	r5, .L37+28
 547 011a 2C40     		ands	r4, r5
 548 011c 1480     		strh	r4, [r2]
 549              		.loc 1 241 7 discriminator 1 view .LVU150
 550 011e 1488     		ldrh	r4, [r2]
 551 0120 6D4D     		ldr	r5, .L37+32
 552 0122 2C43     		orrs	r4, r5
 553 0124 A4B2     		uxth	r4, r4
 554 0126 1480     		strh	r4, [r2]
 555              	.L22:
 556              		.loc 1 241 7 discriminator 13 view .LVU151
 557              	.LBE10:
ARM GAS  /tmp/cclsNgIg.s 			page 15


 558              		.loc 1 241 7 discriminator 13 view .LVU152
 559              	.LBE9:
 560              		.loc 1 241 7 discriminator 13 view .LVU153
 242:Drivers/STM32F0xx_HAL_Driver/Src/stm32f0xx_ll_usb.c ****       PCD_CLEAR_RX_DTOG(USBx, ep->num);
 561              		.loc 1 242 7 discriminator 13 view .LVU154
 562              	.LBB12:
 563              		.loc 1 242 7 discriminator 13 view .LVU155
 564              		.loc 1 242 7 discriminator 13 view .LVU156
 565 0128 0A78     		ldrb	r2, [r1]
 566              	.LVL51:
 567              		.loc 1 242 7 is_stmt 0 discriminator 13 view .LVU157
 568 012a 9200     		lsls	r2, r2, #2
 569 012c 9A18     		adds	r2, r3, r2
 570 012e 1488     		ldrh	r4, [r2]
 571              	.LVL52:
 572              		.loc 1 242 7 is_stmt 1 discriminator 13 view .LVU158
 573 0130 6404     		lsls	r4, r4, #17
 574 0132 06D5     		bpl	.L26
 575              	.LVL53:
 576              		.loc 1 242 7 discriminator 1 view .LVU159
 577              	.LBB13:
 578              		.loc 1 242 7 discriminator 1 view .LVU160
 579              		.loc 1 242 7 discriminator 1 view .LVU161
 580 0134 1488     		ldrh	r4, [r2]
 581 0136 624D     		ldr	r5, .L37+8
 582 0138 2540     		ands	r5, r4
 583              	.LVL54:
 584              		.loc 1 242 7 discriminator 1 view .LVU162
 585 013a 684C     		ldr	r4, .L37+36
 586 013c 2C43     		orrs	r4, r5
 587 013e A4B2     		uxth	r4, r4
 588 0140 1480     		strh	r4, [r2]
 589              	.LVL55:
 590              	.L26:
 591              		.loc 1 242 7 is_stmt 0 discriminator 1 view .LVU163
 592              	.LBE13:
 593              		.loc 1 242 7 is_stmt 1 discriminator 3 view .LVU164
 594              	.LBE12:
 595              		.loc 1 242 7 discriminator 3 view .LVU165
 243:Drivers/STM32F0xx_HAL_Driver/Src/stm32f0xx_ll_usb.c **** 
 244:Drivers/STM32F0xx_HAL_Driver/Src/stm32f0xx_ll_usb.c ****       /* Configure VALID status for the Endpoint*/
 245:Drivers/STM32F0xx_HAL_Driver/Src/stm32f0xx_ll_usb.c ****       PCD_SET_EP_RX_STATUS(USBx, ep->num, USB_EP_RX_VALID);
 596              		.loc 1 245 7 discriminator 3 view .LVU166
 597              	.LBB14:
 598              		.loc 1 245 7 discriminator 3 view .LVU167
 599              		.loc 1 245 7 discriminator 3 view .LVU168
 600 0142 0A78     		ldrb	r2, [r1]
 601 0144 9200     		lsls	r2, r2, #2
 602 0146 9B18     		adds	r3, r3, r2
 603              	.LVL56:
 604              		.loc 1 245 7 is_stmt 0 discriminator 3 view .LVU169
 605 0148 1988     		ldrh	r1, [r3]
 606              	.LVL57:
 607              		.loc 1 245 7 discriminator 3 view .LVU170
 608 014a 654A     		ldr	r2, .L37+40
 609 014c 1140     		ands	r1, r2
 610              	.LVL58:
ARM GAS  /tmp/cclsNgIg.s 			page 16


 611              		.loc 1 245 7 is_stmt 1 discriminator 3 view .LVU171
 612              		.loc 1 245 7 discriminator 3 view .LVU172
 613              		.loc 1 245 7 discriminator 3 view .LVU173
 614              		.loc 1 245 7 discriminator 3 view .LVU174
 615 014e C022     		movs	r2, #192
 616 0150 9201     		lsls	r2, r2, #6
 617 0152 5140     		eors	r1, r2
 618              	.LVL59:
 619              		.loc 1 245 7 discriminator 3 view .LVU175
 620 0154 594A     		ldr	r2, .L37+4
 621 0156 0A43     		orrs	r2, r1
 622 0158 92B2     		uxth	r2, r2
 623 015a 1A80     		strh	r2, [r3]
 624              	.LVL60:
 625              	.L20:
 626              		.loc 1 245 7 is_stmt 0 discriminator 3 view .LVU176
 627              	.LBE14:
 246:Drivers/STM32F0xx_HAL_Driver/Src/stm32f0xx_ll_usb.c ****     }
 247:Drivers/STM32F0xx_HAL_Driver/Src/stm32f0xx_ll_usb.c ****   }
 248:Drivers/STM32F0xx_HAL_Driver/Src/stm32f0xx_ll_usb.c ****   /*Double Buffer*/
 249:Drivers/STM32F0xx_HAL_Driver/Src/stm32f0xx_ll_usb.c ****   else
 250:Drivers/STM32F0xx_HAL_Driver/Src/stm32f0xx_ll_usb.c ****   {
 251:Drivers/STM32F0xx_HAL_Driver/Src/stm32f0xx_ll_usb.c ****     /* Set the endpoint as double buffered */
 252:Drivers/STM32F0xx_HAL_Driver/Src/stm32f0xx_ll_usb.c ****     PCD_SET_EP_DBUF(USBx, ep->num);
 253:Drivers/STM32F0xx_HAL_Driver/Src/stm32f0xx_ll_usb.c **** 
 254:Drivers/STM32F0xx_HAL_Driver/Src/stm32f0xx_ll_usb.c ****     /* Set buffer address for double buffered mode */
 255:Drivers/STM32F0xx_HAL_Driver/Src/stm32f0xx_ll_usb.c ****     PCD_SET_EP_DBUF_ADDR(USBx, ep->num, ep->pmaaddr0, ep->pmaaddr1);
 256:Drivers/STM32F0xx_HAL_Driver/Src/stm32f0xx_ll_usb.c **** 
 257:Drivers/STM32F0xx_HAL_Driver/Src/stm32f0xx_ll_usb.c ****     if (ep->is_in == 0U)
 258:Drivers/STM32F0xx_HAL_Driver/Src/stm32f0xx_ll_usb.c ****     {
 259:Drivers/STM32F0xx_HAL_Driver/Src/stm32f0xx_ll_usb.c ****       /* Clear the data toggle bits for the endpoint IN/OUT */
 260:Drivers/STM32F0xx_HAL_Driver/Src/stm32f0xx_ll_usb.c ****       PCD_CLEAR_RX_DTOG(USBx, ep->num);
 261:Drivers/STM32F0xx_HAL_Driver/Src/stm32f0xx_ll_usb.c ****       PCD_CLEAR_TX_DTOG(USBx, ep->num);
 262:Drivers/STM32F0xx_HAL_Driver/Src/stm32f0xx_ll_usb.c **** 
 263:Drivers/STM32F0xx_HAL_Driver/Src/stm32f0xx_ll_usb.c ****       PCD_SET_EP_RX_STATUS(USBx, ep->num, USB_EP_RX_VALID);
 264:Drivers/STM32F0xx_HAL_Driver/Src/stm32f0xx_ll_usb.c ****       PCD_SET_EP_TX_STATUS(USBx, ep->num, USB_EP_TX_DIS);
 265:Drivers/STM32F0xx_HAL_Driver/Src/stm32f0xx_ll_usb.c ****     }
 266:Drivers/STM32F0xx_HAL_Driver/Src/stm32f0xx_ll_usb.c ****     else
 267:Drivers/STM32F0xx_HAL_Driver/Src/stm32f0xx_ll_usb.c ****     {
 268:Drivers/STM32F0xx_HAL_Driver/Src/stm32f0xx_ll_usb.c ****       /* Clear the data toggle bits for the endpoint IN/OUT */
 269:Drivers/STM32F0xx_HAL_Driver/Src/stm32f0xx_ll_usb.c ****       PCD_CLEAR_RX_DTOG(USBx, ep->num);
 270:Drivers/STM32F0xx_HAL_Driver/Src/stm32f0xx_ll_usb.c ****       PCD_CLEAR_TX_DTOG(USBx, ep->num);
 271:Drivers/STM32F0xx_HAL_Driver/Src/stm32f0xx_ll_usb.c **** 
 272:Drivers/STM32F0xx_HAL_Driver/Src/stm32f0xx_ll_usb.c ****       if (ep->type != EP_TYPE_ISOC)
 273:Drivers/STM32F0xx_HAL_Driver/Src/stm32f0xx_ll_usb.c ****       {
 274:Drivers/STM32F0xx_HAL_Driver/Src/stm32f0xx_ll_usb.c ****         /* Configure NAK status for the Endpoint */
 275:Drivers/STM32F0xx_HAL_Driver/Src/stm32f0xx_ll_usb.c ****         PCD_SET_EP_TX_STATUS(USBx, ep->num, USB_EP_TX_NAK);
 276:Drivers/STM32F0xx_HAL_Driver/Src/stm32f0xx_ll_usb.c ****       }
 277:Drivers/STM32F0xx_HAL_Driver/Src/stm32f0xx_ll_usb.c ****       else
 278:Drivers/STM32F0xx_HAL_Driver/Src/stm32f0xx_ll_usb.c ****       {
 279:Drivers/STM32F0xx_HAL_Driver/Src/stm32f0xx_ll_usb.c ****         /* Configure TX Endpoint to disabled state */
 280:Drivers/STM32F0xx_HAL_Driver/Src/stm32f0xx_ll_usb.c ****         PCD_SET_EP_TX_STATUS(USBx, ep->num, USB_EP_TX_DIS);
 281:Drivers/STM32F0xx_HAL_Driver/Src/stm32f0xx_ll_usb.c ****       }
 282:Drivers/STM32F0xx_HAL_Driver/Src/stm32f0xx_ll_usb.c **** 
 283:Drivers/STM32F0xx_HAL_Driver/Src/stm32f0xx_ll_usb.c ****       PCD_SET_EP_RX_STATUS(USBx, ep->num, USB_EP_RX_DIS);
 628              		.loc 1 283 7 is_stmt 1 discriminator 7 view .LVU177
 284:Drivers/STM32F0xx_HAL_Driver/Src/stm32f0xx_ll_usb.c ****     }
ARM GAS  /tmp/cclsNgIg.s 			page 17


 285:Drivers/STM32F0xx_HAL_Driver/Src/stm32f0xx_ll_usb.c ****   }
 286:Drivers/STM32F0xx_HAL_Driver/Src/stm32f0xx_ll_usb.c **** 
 287:Drivers/STM32F0xx_HAL_Driver/Src/stm32f0xx_ll_usb.c ****   return ret;
 629              		.loc 1 287 3 discriminator 7 view .LVU178
 288:Drivers/STM32F0xx_HAL_Driver/Src/stm32f0xx_ll_usb.c **** }
 630              		.loc 1 288 1 is_stmt 0 discriminator 7 view .LVU179
 631              		@ sp needed
 632 015c F0BD     		pop	{r4, r5, r6, r7, pc}
 633              	.LVL61:
 634              	.L21:
 635              	.LBB15:
 636              	.LBB11:
 241:Drivers/STM32F0xx_HAL_Driver/Src/stm32f0xx_ll_usb.c ****       PCD_CLEAR_RX_DTOG(USBx, ep->num);
 637              		.loc 1 241 7 is_stmt 1 discriminator 2 view .LVU180
 638 015e 3E2C     		cmp	r4, #62
 639 0160 07D8     		bhi	.L23
 241:Drivers/STM32F0xx_HAL_Driver/Src/stm32f0xx_ll_usb.c ****       PCD_CLEAR_RX_DTOG(USBx, ep->num);
 640              		.loc 1 241 7 discriminator 4 view .LVU181
 241:Drivers/STM32F0xx_HAL_Driver/Src/stm32f0xx_ll_usb.c ****       PCD_CLEAR_RX_DTOG(USBx, ep->num);
 641              		.loc 1 241 7 discriminator 4 view .LVU182
 642 0162 6508     		lsrs	r5, r4, #1
 643              	.LVL62:
 241:Drivers/STM32F0xx_HAL_Driver/Src/stm32f0xx_ll_usb.c ****       PCD_CLEAR_RX_DTOG(USBx, ep->num);
 644              		.loc 1 241 7 discriminator 4 view .LVU183
 645 0164 E407     		lsls	r4, r4, #31
 646 0166 00D5     		bpl	.L24
 241:Drivers/STM32F0xx_HAL_Driver/Src/stm32f0xx_ll_usb.c ****       PCD_CLEAR_RX_DTOG(USBx, ep->num);
 647              		.loc 1 241 7 discriminator 6 view .LVU184
 648 0168 0135     		adds	r5, r5, #1
 649              	.LVL63:
 650              	.L24:
 241:Drivers/STM32F0xx_HAL_Driver/Src/stm32f0xx_ll_usb.c ****       PCD_CLEAR_RX_DTOG(USBx, ep->num);
 651              		.loc 1 241 7 discriminator 8 view .LVU185
 652 016a AD02     		lsls	r5, r5, #10
 653              	.LVL64:
 241:Drivers/STM32F0xx_HAL_Driver/Src/stm32f0xx_ll_usb.c ****       PCD_CLEAR_RX_DTOG(USBx, ep->num);
 654              		.loc 1 241 7 is_stmt 0 discriminator 8 view .LVU186
 655 016c ADB2     		uxth	r5, r5
 656 016e 1580     		strh	r5, [r2]
 241:Drivers/STM32F0xx_HAL_Driver/Src/stm32f0xx_ll_usb.c ****       PCD_CLEAR_RX_DTOG(USBx, ep->num);
 657              		.loc 1 241 7 is_stmt 1 discriminator 8 view .LVU187
 658 0170 DAE7     		b	.L22
 659              	.L23:
 241:Drivers/STM32F0xx_HAL_Driver/Src/stm32f0xx_ll_usb.c ****       PCD_CLEAR_RX_DTOG(USBx, ep->num);
 660              		.loc 1 241 7 discriminator 5 view .LVU188
 241:Drivers/STM32F0xx_HAL_Driver/Src/stm32f0xx_ll_usb.c ****       PCD_CLEAR_RX_DTOG(USBx, ep->num);
 661              		.loc 1 241 7 discriminator 5 view .LVU189
 662 0172 6509     		lsrs	r5, r4, #5
 663              	.LVL65:
 241:Drivers/STM32F0xx_HAL_Driver/Src/stm32f0xx_ll_usb.c ****       PCD_CLEAR_RX_DTOG(USBx, ep->num);
 664              		.loc 1 241 7 discriminator 5 view .LVU190
 665 0174 E406     		lsls	r4, r4, #27
 666 0176 00D1     		bne	.L25
 241:Drivers/STM32F0xx_HAL_Driver/Src/stm32f0xx_ll_usb.c ****       PCD_CLEAR_RX_DTOG(USBx, ep->num);
 667              		.loc 1 241 7 discriminator 10 view .LVU191
 668 0178 013D     		subs	r5, r5, #1
 669              	.LVL66:
ARM GAS  /tmp/cclsNgIg.s 			page 18


 670              	.L25:
 241:Drivers/STM32F0xx_HAL_Driver/Src/stm32f0xx_ll_usb.c ****       PCD_CLEAR_RX_DTOG(USBx, ep->num);
 671              		.loc 1 241 7 discriminator 12 view .LVU192
 672 017a AD02     		lsls	r5, r5, #10
 673              	.LVL67:
 241:Drivers/STM32F0xx_HAL_Driver/Src/stm32f0xx_ll_usb.c ****       PCD_CLEAR_RX_DTOG(USBx, ep->num);
 674              		.loc 1 241 7 is_stmt 0 discriminator 12 view .LVU193
 675 017c ADB2     		uxth	r5, r5
 676 017e 564C     		ldr	r4, .L37+32
 677 0180 2543     		orrs	r5, r4
 678 0182 ADB2     		uxth	r5, r5
 679 0184 1580     		strh	r5, [r2]
 680 0186 CFE7     		b	.L22
 681              	.LVL68:
 682              	.L16:
 241:Drivers/STM32F0xx_HAL_Driver/Src/stm32f0xx_ll_usb.c ****       PCD_CLEAR_RX_DTOG(USBx, ep->num);
 683              		.loc 1 241 7 discriminator 12 view .LVU194
 684              	.LBE11:
 685              	.LBE15:
 252:Drivers/STM32F0xx_HAL_Driver/Src/stm32f0xx_ll_usb.c **** 
 686              		.loc 1 252 5 is_stmt 1 view .LVU195
 687              	.LBB16:
 252:Drivers/STM32F0xx_HAL_Driver/Src/stm32f0xx_ll_usb.c **** 
 688              		.loc 1 252 5 view .LVU196
 252:Drivers/STM32F0xx_HAL_Driver/Src/stm32f0xx_ll_usb.c **** 
 689              		.loc 1 252 5 view .LVU197
 690 0188 0A78     		ldrb	r2, [r1]
 691 018a 9200     		lsls	r2, r2, #2
 692 018c 9A18     		adds	r2, r3, r2
 693 018e 1488     		ldrh	r4, [r2]
 694 0190 4B4D     		ldr	r5, .L37+8
 695 0192 2540     		ands	r5, r4
 696              	.LVL69:
 252:Drivers/STM32F0xx_HAL_Driver/Src/stm32f0xx_ll_usb.c **** 
 697              		.loc 1 252 5 view .LVU198
 698 0194 534C     		ldr	r4, .L37+44
 699 0196 2C43     		orrs	r4, r5
 700 0198 A4B2     		uxth	r4, r4
 701 019a 1480     		strh	r4, [r2]
 702              	.LBE16:
 252:Drivers/STM32F0xx_HAL_Driver/Src/stm32f0xx_ll_usb.c **** 
 703              		.loc 1 252 5 view .LVU199
 255:Drivers/STM32F0xx_HAL_Driver/Src/stm32f0xx_ll_usb.c **** 
 704              		.loc 1 255 5 view .LVU200
 255:Drivers/STM32F0xx_HAL_Driver/Src/stm32f0xx_ll_usb.c **** 
 705              		.loc 1 255 5 view .LVU201
 255:Drivers/STM32F0xx_HAL_Driver/Src/stm32f0xx_ll_usb.c **** 
 706              		.loc 1 255 5 view .LVU202
 707              	.LBB17:
 255:Drivers/STM32F0xx_HAL_Driver/Src/stm32f0xx_ll_usb.c **** 
 708              		.loc 1 255 5 view .LVU203
 255:Drivers/STM32F0xx_HAL_Driver/Src/stm32f0xx_ll_usb.c **** 
 709              		.loc 1 255 5 view .LVU204
 710              	.LVL70:
 255:Drivers/STM32F0xx_HAL_Driver/Src/stm32f0xx_ll_usb.c **** 
 711              		.loc 1 255 5 view .LVU205
 712 019c 5025     		movs	r5, #80
ARM GAS  /tmp/cclsNgIg.s 			page 19


 713              	.LVL71:
 255:Drivers/STM32F0xx_HAL_Driver/Src/stm32f0xx_ll_usb.c **** 
 714              		.loc 1 255 5 is_stmt 0 view .LVU206
 715 019e 5C5B     		ldrh	r4, [r3, r5]
 716 01a0 1C19     		adds	r4, r3, r4
 717              	.LVL72:
 255:Drivers/STM32F0xx_HAL_Driver/Src/stm32f0xx_ll_usb.c **** 
 718              		.loc 1 255 5 is_stmt 1 view .LVU207
 719 01a2 0A78     		ldrb	r2, [r1]
 720 01a4 D200     		lsls	r2, r2, #3
 721 01a6 1219     		adds	r2, r2, r4
 722 01a8 8024     		movs	r4, #128
 723              	.LVL73:
 255:Drivers/STM32F0xx_HAL_Driver/Src/stm32f0xx_ll_usb.c **** 
 724              		.loc 1 255 5 is_stmt 0 view .LVU208
 725 01aa E400     		lsls	r4, r4, #3
 726 01ac A446     		mov	ip, r4
 727 01ae 6244     		add	r2, r2, ip
 728              	.LVL74:
 255:Drivers/STM32F0xx_HAL_Driver/Src/stm32f0xx_ll_usb.c **** 
 729              		.loc 1 255 5 is_stmt 1 view .LVU209
 730 01b0 0C89     		ldrh	r4, [r1, #8]
 731 01b2 6408     		lsrs	r4, r4, #1
 732 01b4 6400     		lsls	r4, r4, #1
 733 01b6 1480     		strh	r4, [r2]
 734              	.LBE17:
 255:Drivers/STM32F0xx_HAL_Driver/Src/stm32f0xx_ll_usb.c **** 
 735              		.loc 1 255 5 view .LVU210
 255:Drivers/STM32F0xx_HAL_Driver/Src/stm32f0xx_ll_usb.c **** 
 736              		.loc 1 255 5 view .LVU211
 255:Drivers/STM32F0xx_HAL_Driver/Src/stm32f0xx_ll_usb.c **** 
 737              		.loc 1 255 5 view .LVU212
 255:Drivers/STM32F0xx_HAL_Driver/Src/stm32f0xx_ll_usb.c **** 
 738              		.loc 1 255 5 view .LVU213
 739              	.LBB18:
 255:Drivers/STM32F0xx_HAL_Driver/Src/stm32f0xx_ll_usb.c **** 
 740              		.loc 1 255 5 view .LVU214
 255:Drivers/STM32F0xx_HAL_Driver/Src/stm32f0xx_ll_usb.c **** 
 741              		.loc 1 255 5 view .LVU215
 742              	.LVL75:
 255:Drivers/STM32F0xx_HAL_Driver/Src/stm32f0xx_ll_usb.c **** 
 743              		.loc 1 255 5 view .LVU216
 744 01b8 5C5B     		ldrh	r4, [r3, r5]
 745 01ba 1C19     		adds	r4, r3, r4
 746              	.LVL76:
 255:Drivers/STM32F0xx_HAL_Driver/Src/stm32f0xx_ll_usb.c **** 
 747              		.loc 1 255 5 view .LVU217
 748 01bc 0A78     		ldrb	r2, [r1]
 749              	.LVL77:
 255:Drivers/STM32F0xx_HAL_Driver/Src/stm32f0xx_ll_usb.c **** 
 750              		.loc 1 255 5 is_stmt 0 view .LVU218
 751 01be D200     		lsls	r2, r2, #3
 752 01c0 1219     		adds	r2, r2, r4
 753 01c2 424C     		ldr	r4, .L37+20
 754              	.LVL78:
 255:Drivers/STM32F0xx_HAL_Driver/Src/stm32f0xx_ll_usb.c **** 
 755              		.loc 1 255 5 view .LVU219
ARM GAS  /tmp/cclsNgIg.s 			page 20


 756 01c4 A446     		mov	ip, r4
 757 01c6 6244     		add	r2, r2, ip
 758              	.LVL79:
 255:Drivers/STM32F0xx_HAL_Driver/Src/stm32f0xx_ll_usb.c **** 
 759              		.loc 1 255 5 is_stmt 1 view .LVU220
 760 01c8 4C89     		ldrh	r4, [r1, #10]
 761 01ca 6408     		lsrs	r4, r4, #1
 762 01cc 6400     		lsls	r4, r4, #1
 763 01ce 1480     		strh	r4, [r2]
 764              	.LBE18:
 255:Drivers/STM32F0xx_HAL_Driver/Src/stm32f0xx_ll_usb.c **** 
 765              		.loc 1 255 5 view .LVU221
 255:Drivers/STM32F0xx_HAL_Driver/Src/stm32f0xx_ll_usb.c **** 
 766              		.loc 1 255 5 view .LVU222
 255:Drivers/STM32F0xx_HAL_Driver/Src/stm32f0xx_ll_usb.c **** 
 767              		.loc 1 255 5 view .LVU223
 257:Drivers/STM32F0xx_HAL_Driver/Src/stm32f0xx_ll_usb.c ****     {
 768              		.loc 1 257 5 view .LVU224
 257:Drivers/STM32F0xx_HAL_Driver/Src/stm32f0xx_ll_usb.c ****     {
 769              		.loc 1 257 11 is_stmt 0 view .LVU225
 770 01d0 4A78     		ldrb	r2, [r1, #1]
 771              	.LVL80:
 257:Drivers/STM32F0xx_HAL_Driver/Src/stm32f0xx_ll_usb.c ****     {
 772              		.loc 1 257 8 view .LVU226
 773 01d2 002A     		cmp	r2, #0
 774 01d4 30D1     		bne	.L27
 260:Drivers/STM32F0xx_HAL_Driver/Src/stm32f0xx_ll_usb.c ****       PCD_CLEAR_TX_DTOG(USBx, ep->num);
 775              		.loc 1 260 7 is_stmt 1 view .LVU227
 776              	.LBB19:
 260:Drivers/STM32F0xx_HAL_Driver/Src/stm32f0xx_ll_usb.c ****       PCD_CLEAR_TX_DTOG(USBx, ep->num);
 777              		.loc 1 260 7 view .LVU228
 260:Drivers/STM32F0xx_HAL_Driver/Src/stm32f0xx_ll_usb.c ****       PCD_CLEAR_TX_DTOG(USBx, ep->num);
 778              		.loc 1 260 7 view .LVU229
 779 01d6 0A78     		ldrb	r2, [r1]
 780 01d8 9200     		lsls	r2, r2, #2
 781 01da 9A18     		adds	r2, r3, r2
 782 01dc 1488     		ldrh	r4, [r2]
 783              	.LVL81:
 260:Drivers/STM32F0xx_HAL_Driver/Src/stm32f0xx_ll_usb.c ****       PCD_CLEAR_TX_DTOG(USBx, ep->num);
 784              		.loc 1 260 7 view .LVU230
 785 01de 6404     		lsls	r4, r4, #17
 786 01e0 06D5     		bpl	.L28
 787              	.LVL82:
 260:Drivers/STM32F0xx_HAL_Driver/Src/stm32f0xx_ll_usb.c ****       PCD_CLEAR_TX_DTOG(USBx, ep->num);
 788              		.loc 1 260 7 discriminator 1 view .LVU231
 789              	.LBB20:
 260:Drivers/STM32F0xx_HAL_Driver/Src/stm32f0xx_ll_usb.c ****       PCD_CLEAR_TX_DTOG(USBx, ep->num);
 790              		.loc 1 260 7 discriminator 1 view .LVU232
 260:Drivers/STM32F0xx_HAL_Driver/Src/stm32f0xx_ll_usb.c ****       PCD_CLEAR_TX_DTOG(USBx, ep->num);
 791              		.loc 1 260 7 discriminator 1 view .LVU233
 792 01e2 1488     		ldrh	r4, [r2]
 793 01e4 364D     		ldr	r5, .L37+8
 794 01e6 2540     		ands	r5, r4
 795              	.LVL83:
 260:Drivers/STM32F0xx_HAL_Driver/Src/stm32f0xx_ll_usb.c ****       PCD_CLEAR_TX_DTOG(USBx, ep->num);
 796              		.loc 1 260 7 discriminator 1 view .LVU234
 797 01e8 3C4C     		ldr	r4, .L37+36
ARM GAS  /tmp/cclsNgIg.s 			page 21


 798 01ea 2C43     		orrs	r4, r5
 799 01ec A4B2     		uxth	r4, r4
 800 01ee 1480     		strh	r4, [r2]
 801              	.LVL84:
 802              	.L28:
 260:Drivers/STM32F0xx_HAL_Driver/Src/stm32f0xx_ll_usb.c ****       PCD_CLEAR_TX_DTOG(USBx, ep->num);
 803              		.loc 1 260 7 is_stmt 0 discriminator 1 view .LVU235
 804              	.LBE20:
 260:Drivers/STM32F0xx_HAL_Driver/Src/stm32f0xx_ll_usb.c ****       PCD_CLEAR_TX_DTOG(USBx, ep->num);
 805              		.loc 1 260 7 is_stmt 1 discriminator 3 view .LVU236
 806              	.LBE19:
 260:Drivers/STM32F0xx_HAL_Driver/Src/stm32f0xx_ll_usb.c ****       PCD_CLEAR_TX_DTOG(USBx, ep->num);
 807              		.loc 1 260 7 discriminator 3 view .LVU237
 261:Drivers/STM32F0xx_HAL_Driver/Src/stm32f0xx_ll_usb.c **** 
 808              		.loc 1 261 7 discriminator 3 view .LVU238
 809              	.LBB21:
 261:Drivers/STM32F0xx_HAL_Driver/Src/stm32f0xx_ll_usb.c **** 
 810              		.loc 1 261 7 discriminator 3 view .LVU239
 261:Drivers/STM32F0xx_HAL_Driver/Src/stm32f0xx_ll_usb.c **** 
 811              		.loc 1 261 7 discriminator 3 view .LVU240
 812 01f0 0A78     		ldrb	r2, [r1]
 813 01f2 9200     		lsls	r2, r2, #2
 814 01f4 9A18     		adds	r2, r3, r2
 815 01f6 1488     		ldrh	r4, [r2]
 816              	.LVL85:
 261:Drivers/STM32F0xx_HAL_Driver/Src/stm32f0xx_ll_usb.c **** 
 817              		.loc 1 261 7 discriminator 3 view .LVU241
 818 01f8 6406     		lsls	r4, r4, #25
 819 01fa 06D5     		bpl	.L29
 820              	.LVL86:
 261:Drivers/STM32F0xx_HAL_Driver/Src/stm32f0xx_ll_usb.c **** 
 821              		.loc 1 261 7 discriminator 1 view .LVU242
 822              	.LBB22:
 261:Drivers/STM32F0xx_HAL_Driver/Src/stm32f0xx_ll_usb.c **** 
 823              		.loc 1 261 7 discriminator 1 view .LVU243
 261:Drivers/STM32F0xx_HAL_Driver/Src/stm32f0xx_ll_usb.c **** 
 824              		.loc 1 261 7 discriminator 1 view .LVU244
 825 01fc 1488     		ldrh	r4, [r2]
 826 01fe 304D     		ldr	r5, .L37+8
 827 0200 2540     		ands	r5, r4
 828              	.LVL87:
 261:Drivers/STM32F0xx_HAL_Driver/Src/stm32f0xx_ll_usb.c **** 
 829              		.loc 1 261 7 discriminator 1 view .LVU245
 830 0202 304C     		ldr	r4, .L37+12
 831 0204 2C43     		orrs	r4, r5
 832 0206 A4B2     		uxth	r4, r4
 833 0208 1480     		strh	r4, [r2]
 834              	.LVL88:
 835              	.L29:
 261:Drivers/STM32F0xx_HAL_Driver/Src/stm32f0xx_ll_usb.c **** 
 836              		.loc 1 261 7 is_stmt 0 discriminator 1 view .LVU246
 837              	.LBE22:
 261:Drivers/STM32F0xx_HAL_Driver/Src/stm32f0xx_ll_usb.c **** 
 838              		.loc 1 261 7 is_stmt 1 discriminator 3 view .LVU247
 839              	.LBE21:
 261:Drivers/STM32F0xx_HAL_Driver/Src/stm32f0xx_ll_usb.c **** 
 840              		.loc 1 261 7 discriminator 3 view .LVU248
ARM GAS  /tmp/cclsNgIg.s 			page 22


 263:Drivers/STM32F0xx_HAL_Driver/Src/stm32f0xx_ll_usb.c ****       PCD_SET_EP_TX_STATUS(USBx, ep->num, USB_EP_TX_DIS);
 841              		.loc 1 263 7 discriminator 3 view .LVU249
 842              	.LBB23:
 263:Drivers/STM32F0xx_HAL_Driver/Src/stm32f0xx_ll_usb.c ****       PCD_SET_EP_TX_STATUS(USBx, ep->num, USB_EP_TX_DIS);
 843              		.loc 1 263 7 discriminator 3 view .LVU250
 263:Drivers/STM32F0xx_HAL_Driver/Src/stm32f0xx_ll_usb.c ****       PCD_SET_EP_TX_STATUS(USBx, ep->num, USB_EP_TX_DIS);
 844              		.loc 1 263 7 discriminator 3 view .LVU251
 845 020a 0C78     		ldrb	r4, [r1]
 846 020c A400     		lsls	r4, r4, #2
 847 020e 1C19     		adds	r4, r3, r4
 848 0210 2288     		ldrh	r2, [r4]
 849 0212 334D     		ldr	r5, .L37+40
 850 0214 1540     		ands	r5, r2
 851              	.LVL89:
 263:Drivers/STM32F0xx_HAL_Driver/Src/stm32f0xx_ll_usb.c ****       PCD_SET_EP_TX_STATUS(USBx, ep->num, USB_EP_TX_DIS);
 852              		.loc 1 263 7 discriminator 3 view .LVU252
 263:Drivers/STM32F0xx_HAL_Driver/Src/stm32f0xx_ll_usb.c ****       PCD_SET_EP_TX_STATUS(USBx, ep->num, USB_EP_TX_DIS);
 853              		.loc 1 263 7 discriminator 3 view .LVU253
 263:Drivers/STM32F0xx_HAL_Driver/Src/stm32f0xx_ll_usb.c ****       PCD_SET_EP_TX_STATUS(USBx, ep->num, USB_EP_TX_DIS);
 854              		.loc 1 263 7 discriminator 3 view .LVU254
 263:Drivers/STM32F0xx_HAL_Driver/Src/stm32f0xx_ll_usb.c ****       PCD_SET_EP_TX_STATUS(USBx, ep->num, USB_EP_TX_DIS);
 855              		.loc 1 263 7 discriminator 3 view .LVU255
 856 0216 C022     		movs	r2, #192
 857 0218 9201     		lsls	r2, r2, #6
 858 021a 6A40     		eors	r2, r5
 859              	.LVL90:
 263:Drivers/STM32F0xx_HAL_Driver/Src/stm32f0xx_ll_usb.c ****       PCD_SET_EP_TX_STATUS(USBx, ep->num, USB_EP_TX_DIS);
 860              		.loc 1 263 7 discriminator 3 view .LVU256
 861 021c 274D     		ldr	r5, .L37+4
 862 021e 2A43     		orrs	r2, r5
 863              	.LVL91:
 263:Drivers/STM32F0xx_HAL_Driver/Src/stm32f0xx_ll_usb.c ****       PCD_SET_EP_TX_STATUS(USBx, ep->num, USB_EP_TX_DIS);
 864              		.loc 1 263 7 is_stmt 0 discriminator 3 view .LVU257
 865 0220 92B2     		uxth	r2, r2
 866 0222 2280     		strh	r2, [r4]
 867              	.LBE23:
 263:Drivers/STM32F0xx_HAL_Driver/Src/stm32f0xx_ll_usb.c ****       PCD_SET_EP_TX_STATUS(USBx, ep->num, USB_EP_TX_DIS);
 868              		.loc 1 263 7 is_stmt 1 discriminator 3 view .LVU258
 264:Drivers/STM32F0xx_HAL_Driver/Src/stm32f0xx_ll_usb.c ****     }
 869              		.loc 1 264 7 discriminator 3 view .LVU259
 870              	.LBB24:
 264:Drivers/STM32F0xx_HAL_Driver/Src/stm32f0xx_ll_usb.c ****     }
 871              		.loc 1 264 7 discriminator 3 view .LVU260
 264:Drivers/STM32F0xx_HAL_Driver/Src/stm32f0xx_ll_usb.c ****     }
 872              		.loc 1 264 7 discriminator 3 view .LVU261
 873 0224 0A78     		ldrb	r2, [r1]
 874 0226 9200     		lsls	r2, r2, #2
 875 0228 9B18     		adds	r3, r3, r2
 876              	.LVL92:
 264:Drivers/STM32F0xx_HAL_Driver/Src/stm32f0xx_ll_usb.c ****     }
 877              		.loc 1 264 7 is_stmt 0 discriminator 3 view .LVU262
 878 022a 1A88     		ldrh	r2, [r3]
 879 022c 2649     		ldr	r1, .L37+16
 880              	.LVL93:
 264:Drivers/STM32F0xx_HAL_Driver/Src/stm32f0xx_ll_usb.c ****     }
 881              		.loc 1 264 7 discriminator 3 view .LVU263
 882 022e 0A40     		ands	r2, r1
ARM GAS  /tmp/cclsNgIg.s 			page 23


 883              	.LVL94:
 264:Drivers/STM32F0xx_HAL_Driver/Src/stm32f0xx_ll_usb.c ****     }
 884              		.loc 1 264 7 is_stmt 1 discriminator 3 view .LVU264
 264:Drivers/STM32F0xx_HAL_Driver/Src/stm32f0xx_ll_usb.c ****     }
 885              		.loc 1 264 7 discriminator 3 view .LVU265
 264:Drivers/STM32F0xx_HAL_Driver/Src/stm32f0xx_ll_usb.c ****     }
 886              		.loc 1 264 7 discriminator 3 view .LVU266
 887 0230 2A43     		orrs	r2, r5
 888              	.LVL95:
 264:Drivers/STM32F0xx_HAL_Driver/Src/stm32f0xx_ll_usb.c ****     }
 889              		.loc 1 264 7 is_stmt 0 discriminator 3 view .LVU267
 890 0232 92B2     		uxth	r2, r2
 891 0234 1A80     		strh	r2, [r3]
 892              	.LBE24:
 264:Drivers/STM32F0xx_HAL_Driver/Src/stm32f0xx_ll_usb.c ****     }
 893              		.loc 1 264 7 is_stmt 1 discriminator 3 view .LVU268
 894 0236 91E7     		b	.L20
 895              	.LVL96:
 896              	.L27:
 269:Drivers/STM32F0xx_HAL_Driver/Src/stm32f0xx_ll_usb.c ****       PCD_CLEAR_TX_DTOG(USBx, ep->num);
 897              		.loc 1 269 7 view .LVU269
 898              	.LBB25:
 269:Drivers/STM32F0xx_HAL_Driver/Src/stm32f0xx_ll_usb.c ****       PCD_CLEAR_TX_DTOG(USBx, ep->num);
 899              		.loc 1 269 7 view .LVU270
 269:Drivers/STM32F0xx_HAL_Driver/Src/stm32f0xx_ll_usb.c ****       PCD_CLEAR_TX_DTOG(USBx, ep->num);
 900              		.loc 1 269 7 view .LVU271
 901 0238 0A78     		ldrb	r2, [r1]
 902 023a 9200     		lsls	r2, r2, #2
 903 023c 9A18     		adds	r2, r3, r2
 904 023e 1488     		ldrh	r4, [r2]
 905              	.LVL97:
 269:Drivers/STM32F0xx_HAL_Driver/Src/stm32f0xx_ll_usb.c ****       PCD_CLEAR_TX_DTOG(USBx, ep->num);
 906              		.loc 1 269 7 view .LVU272
 907 0240 6404     		lsls	r4, r4, #17
 908 0242 06D5     		bpl	.L30
 909              	.LVL98:
 269:Drivers/STM32F0xx_HAL_Driver/Src/stm32f0xx_ll_usb.c ****       PCD_CLEAR_TX_DTOG(USBx, ep->num);
 910              		.loc 1 269 7 discriminator 1 view .LVU273
 911              	.LBB26:
 269:Drivers/STM32F0xx_HAL_Driver/Src/stm32f0xx_ll_usb.c ****       PCD_CLEAR_TX_DTOG(USBx, ep->num);
 912              		.loc 1 269 7 discriminator 1 view .LVU274
 269:Drivers/STM32F0xx_HAL_Driver/Src/stm32f0xx_ll_usb.c ****       PCD_CLEAR_TX_DTOG(USBx, ep->num);
 913              		.loc 1 269 7 discriminator 1 view .LVU275
 914 0244 1488     		ldrh	r4, [r2]
 915 0246 1E4D     		ldr	r5, .L37+8
 916 0248 2540     		ands	r5, r4
 917              	.LVL99:
 269:Drivers/STM32F0xx_HAL_Driver/Src/stm32f0xx_ll_usb.c ****       PCD_CLEAR_TX_DTOG(USBx, ep->num);
 918              		.loc 1 269 7 discriminator 1 view .LVU276
 919 024a 244C     		ldr	r4, .L37+36
 920 024c 2C43     		orrs	r4, r5
 921 024e A4B2     		uxth	r4, r4
 922 0250 1480     		strh	r4, [r2]
 923              	.LVL100:
 924              	.L30:
 269:Drivers/STM32F0xx_HAL_Driver/Src/stm32f0xx_ll_usb.c ****       PCD_CLEAR_TX_DTOG(USBx, ep->num);
 925              		.loc 1 269 7 is_stmt 0 discriminator 1 view .LVU277
ARM GAS  /tmp/cclsNgIg.s 			page 24


 926              	.LBE26:
 269:Drivers/STM32F0xx_HAL_Driver/Src/stm32f0xx_ll_usb.c ****       PCD_CLEAR_TX_DTOG(USBx, ep->num);
 927              		.loc 1 269 7 is_stmt 1 discriminator 3 view .LVU278
 928              	.LBE25:
 269:Drivers/STM32F0xx_HAL_Driver/Src/stm32f0xx_ll_usb.c ****       PCD_CLEAR_TX_DTOG(USBx, ep->num);
 929              		.loc 1 269 7 discriminator 3 view .LVU279
 270:Drivers/STM32F0xx_HAL_Driver/Src/stm32f0xx_ll_usb.c **** 
 930              		.loc 1 270 7 discriminator 3 view .LVU280
 931              	.LBB27:
 270:Drivers/STM32F0xx_HAL_Driver/Src/stm32f0xx_ll_usb.c **** 
 932              		.loc 1 270 7 discriminator 3 view .LVU281
 270:Drivers/STM32F0xx_HAL_Driver/Src/stm32f0xx_ll_usb.c **** 
 933              		.loc 1 270 7 discriminator 3 view .LVU282
 934 0252 0A78     		ldrb	r2, [r1]
 935 0254 9200     		lsls	r2, r2, #2
 936 0256 9A18     		adds	r2, r3, r2
 937 0258 1488     		ldrh	r4, [r2]
 938              	.LVL101:
 270:Drivers/STM32F0xx_HAL_Driver/Src/stm32f0xx_ll_usb.c **** 
 939              		.loc 1 270 7 discriminator 3 view .LVU283
 940 025a 6406     		lsls	r4, r4, #25
 941 025c 06D5     		bpl	.L31
 942              	.LVL102:
 270:Drivers/STM32F0xx_HAL_Driver/Src/stm32f0xx_ll_usb.c **** 
 943              		.loc 1 270 7 discriminator 1 view .LVU284
 944              	.LBB28:
 270:Drivers/STM32F0xx_HAL_Driver/Src/stm32f0xx_ll_usb.c **** 
 945              		.loc 1 270 7 discriminator 1 view .LVU285
 270:Drivers/STM32F0xx_HAL_Driver/Src/stm32f0xx_ll_usb.c **** 
 946              		.loc 1 270 7 discriminator 1 view .LVU286
 947 025e 1488     		ldrh	r4, [r2]
 948 0260 174D     		ldr	r5, .L37+8
 949 0262 2540     		ands	r5, r4
 950              	.LVL103:
 270:Drivers/STM32F0xx_HAL_Driver/Src/stm32f0xx_ll_usb.c **** 
 951              		.loc 1 270 7 discriminator 1 view .LVU287
 952 0264 174C     		ldr	r4, .L37+12
 953 0266 2C43     		orrs	r4, r5
 954 0268 A4B2     		uxth	r4, r4
 955 026a 1480     		strh	r4, [r2]
 956              	.LVL104:
 957              	.L31:
 270:Drivers/STM32F0xx_HAL_Driver/Src/stm32f0xx_ll_usb.c **** 
 958              		.loc 1 270 7 is_stmt 0 discriminator 1 view .LVU288
 959              	.LBE28:
 270:Drivers/STM32F0xx_HAL_Driver/Src/stm32f0xx_ll_usb.c **** 
 960              		.loc 1 270 7 is_stmt 1 discriminator 3 view .LVU289
 961              	.LBE27:
 270:Drivers/STM32F0xx_HAL_Driver/Src/stm32f0xx_ll_usb.c **** 
 962              		.loc 1 270 7 discriminator 3 view .LVU290
 272:Drivers/STM32F0xx_HAL_Driver/Src/stm32f0xx_ll_usb.c ****       {
 963              		.loc 1 272 7 discriminator 3 view .LVU291
 272:Drivers/STM32F0xx_HAL_Driver/Src/stm32f0xx_ll_usb.c ****       {
 964              		.loc 1 272 13 is_stmt 0 discriminator 3 view .LVU292
 965 026c CA78     		ldrb	r2, [r1, #3]
 272:Drivers/STM32F0xx_HAL_Driver/Src/stm32f0xx_ll_usb.c ****       {
 966              		.loc 1 272 10 discriminator 3 view .LVU293
ARM GAS  /tmp/cclsNgIg.s 			page 25


 967 026e 012A     		cmp	r2, #1
 968 0270 17D0     		beq	.L32
 275:Drivers/STM32F0xx_HAL_Driver/Src/stm32f0xx_ll_usb.c ****       }
 969              		.loc 1 275 9 is_stmt 1 view .LVU294
 970              	.LBB29:
 275:Drivers/STM32F0xx_HAL_Driver/Src/stm32f0xx_ll_usb.c ****       }
 971              		.loc 1 275 9 view .LVU295
 275:Drivers/STM32F0xx_HAL_Driver/Src/stm32f0xx_ll_usb.c ****       }
 972              		.loc 1 275 9 view .LVU296
 973 0272 0C78     		ldrb	r4, [r1]
 974 0274 A400     		lsls	r4, r4, #2
 975 0276 1C19     		adds	r4, r3, r4
 976 0278 2288     		ldrh	r2, [r4]
 977 027a 134D     		ldr	r5, .L37+16
 978 027c 2A40     		ands	r2, r5
 979              	.LVL105:
 275:Drivers/STM32F0xx_HAL_Driver/Src/stm32f0xx_ll_usb.c ****       }
 980              		.loc 1 275 9 view .LVU297
 275:Drivers/STM32F0xx_HAL_Driver/Src/stm32f0xx_ll_usb.c ****       }
 981              		.loc 1 275 9 view .LVU298
 275:Drivers/STM32F0xx_HAL_Driver/Src/stm32f0xx_ll_usb.c ****       }
 982              		.loc 1 275 9 view .LVU299
 983 027e 2025     		movs	r5, #32
 984 0280 6A40     		eors	r2, r5
 985              	.LVL106:
 275:Drivers/STM32F0xx_HAL_Driver/Src/stm32f0xx_ll_usb.c ****       }
 986              		.loc 1 275 9 is_stmt 0 view .LVU300
 987 0282 92B2     		uxth	r2, r2
 988              	.LVL107:
 275:Drivers/STM32F0xx_HAL_Driver/Src/stm32f0xx_ll_usb.c ****       }
 989              		.loc 1 275 9 is_stmt 1 view .LVU301
 990 0284 0D4D     		ldr	r5, .L37+4
 991 0286 2A43     		orrs	r2, r5
 992              	.LVL108:
 275:Drivers/STM32F0xx_HAL_Driver/Src/stm32f0xx_ll_usb.c ****       }
 993              		.loc 1 275 9 is_stmt 0 view .LVU302
 994 0288 92B2     		uxth	r2, r2
 995 028a 2280     		strh	r2, [r4]
 996              	.LBE29:
 275:Drivers/STM32F0xx_HAL_Driver/Src/stm32f0xx_ll_usb.c ****       }
 997              		.loc 1 275 9 is_stmt 1 view .LVU303
 998              	.L33:
 280:Drivers/STM32F0xx_HAL_Driver/Src/stm32f0xx_ll_usb.c ****       }
 999              		.loc 1 280 9 discriminator 7 view .LVU304
 283:Drivers/STM32F0xx_HAL_Driver/Src/stm32f0xx_ll_usb.c ****     }
 1000              		.loc 1 283 7 discriminator 7 view .LVU305
 1001              	.LBB30:
 283:Drivers/STM32F0xx_HAL_Driver/Src/stm32f0xx_ll_usb.c ****     }
 1002              		.loc 1 283 7 discriminator 7 view .LVU306
 283:Drivers/STM32F0xx_HAL_Driver/Src/stm32f0xx_ll_usb.c ****     }
 1003              		.loc 1 283 7 discriminator 7 view .LVU307
 1004 028c 0A78     		ldrb	r2, [r1]
 1005 028e 9200     		lsls	r2, r2, #2
 1006 0290 9B18     		adds	r3, r3, r2
 1007              	.LVL109:
 283:Drivers/STM32F0xx_HAL_Driver/Src/stm32f0xx_ll_usb.c ****     }
 1008              		.loc 1 283 7 is_stmt 0 discriminator 7 view .LVU308
ARM GAS  /tmp/cclsNgIg.s 			page 26


 1009 0292 1A88     		ldrh	r2, [r3]
 1010 0294 1249     		ldr	r1, .L37+40
 1011              	.LVL110:
 283:Drivers/STM32F0xx_HAL_Driver/Src/stm32f0xx_ll_usb.c ****     }
 1012              		.loc 1 283 7 discriminator 7 view .LVU309
 1013 0296 1140     		ands	r1, r2
 1014              	.LVL111:
 283:Drivers/STM32F0xx_HAL_Driver/Src/stm32f0xx_ll_usb.c ****     }
 1015              		.loc 1 283 7 is_stmt 1 discriminator 7 view .LVU310
 283:Drivers/STM32F0xx_HAL_Driver/Src/stm32f0xx_ll_usb.c ****     }
 1016              		.loc 1 283 7 discriminator 7 view .LVU311
 283:Drivers/STM32F0xx_HAL_Driver/Src/stm32f0xx_ll_usb.c ****     }
 1017              		.loc 1 283 7 discriminator 7 view .LVU312
 1018 0298 084A     		ldr	r2, .L37+4
 1019 029a 0A43     		orrs	r2, r1
 1020 029c 92B2     		uxth	r2, r2
 1021 029e 1A80     		strh	r2, [r3]
 1022 02a0 5CE7     		b	.L20
 1023              	.LVL112:
 1024              	.L32:
 283:Drivers/STM32F0xx_HAL_Driver/Src/stm32f0xx_ll_usb.c ****     }
 1025              		.loc 1 283 7 is_stmt 0 discriminator 7 view .LVU313
 1026              	.LBE30:
 280:Drivers/STM32F0xx_HAL_Driver/Src/stm32f0xx_ll_usb.c ****       }
 1027              		.loc 1 280 9 is_stmt 1 view .LVU314
 1028              	.LBB31:
 280:Drivers/STM32F0xx_HAL_Driver/Src/stm32f0xx_ll_usb.c ****       }
 1029              		.loc 1 280 9 view .LVU315
 280:Drivers/STM32F0xx_HAL_Driver/Src/stm32f0xx_ll_usb.c ****       }
 1030              		.loc 1 280 9 view .LVU316
 1031 02a2 0A78     		ldrb	r2, [r1]
 1032 02a4 9200     		lsls	r2, r2, #2
 1033 02a6 9A18     		adds	r2, r3, r2
 1034 02a8 1488     		ldrh	r4, [r2]
 1035 02aa 074D     		ldr	r5, .L37+16
 1036 02ac 2540     		ands	r5, r4
 1037              	.LVL113:
 280:Drivers/STM32F0xx_HAL_Driver/Src/stm32f0xx_ll_usb.c ****       }
 1038              		.loc 1 280 9 view .LVU317
 280:Drivers/STM32F0xx_HAL_Driver/Src/stm32f0xx_ll_usb.c ****       }
 1039              		.loc 1 280 9 view .LVU318
 280:Drivers/STM32F0xx_HAL_Driver/Src/stm32f0xx_ll_usb.c ****       }
 1040              		.loc 1 280 9 view .LVU319
 1041 02ae 034C     		ldr	r4, .L37+4
 1042 02b0 2C43     		orrs	r4, r5
 1043 02b2 A4B2     		uxth	r4, r4
 1044 02b4 1480     		strh	r4, [r2]
 1045 02b6 E9E7     		b	.L33
 1046              	.L38:
 1047              		.align	2
 1048              	.L37:
 1049 02b8 8F89FFFF 		.word	-30321
 1050 02bc 8080FFFF 		.word	-32640
 1051 02c0 8F8FFFFF 		.word	-28785
 1052 02c4 C080FFFF 		.word	-32576
 1053 02c8 BF8FFFFF 		.word	-28737
 1054 02cc 04040000 		.word	1028
ARM GAS  /tmp/cclsNgIg.s 			page 27


 1055 02d0 06040000 		.word	1030
 1056 02d4 FF83FFFF 		.word	-31745
 1057 02d8 0080FFFF 		.word	-32768
 1058 02dc 80C0FFFF 		.word	-16256
 1059 02e0 8FBFFFFF 		.word	-16497
 1060 02e4 8081FFFF 		.word	-32384
 1061              	.LBE31:
 1062              		.cfi_endproc
 1063              	.LFE45:
 1065              		.section	.text.USB_DeactivateEndpoint,"ax",%progbits
 1066              		.align	1
 1067              		.global	USB_DeactivateEndpoint
 1068              		.syntax unified
 1069              		.code	16
 1070              		.thumb_func
 1071              		.fpu softvfp
 1073              	USB_DeactivateEndpoint:
 1074              	.LVL114:
 1075              	.LFB46:
 289:Drivers/STM32F0xx_HAL_Driver/Src/stm32f0xx_ll_usb.c **** 
 290:Drivers/STM32F0xx_HAL_Driver/Src/stm32f0xx_ll_usb.c **** /**
 291:Drivers/STM32F0xx_HAL_Driver/Src/stm32f0xx_ll_usb.c ****   * @brief  De-activate and de-initialize an endpoint
 292:Drivers/STM32F0xx_HAL_Driver/Src/stm32f0xx_ll_usb.c ****   * @param  USBx Selected device
 293:Drivers/STM32F0xx_HAL_Driver/Src/stm32f0xx_ll_usb.c ****   * @param  ep pointer to endpoint structure
 294:Drivers/STM32F0xx_HAL_Driver/Src/stm32f0xx_ll_usb.c ****   * @retval HAL status
 295:Drivers/STM32F0xx_HAL_Driver/Src/stm32f0xx_ll_usb.c ****   */
 296:Drivers/STM32F0xx_HAL_Driver/Src/stm32f0xx_ll_usb.c **** HAL_StatusTypeDef USB_DeactivateEndpoint(USB_TypeDef *USBx, USB_EPTypeDef *ep)
 297:Drivers/STM32F0xx_HAL_Driver/Src/stm32f0xx_ll_usb.c **** {
 1076              		.loc 1 297 1 view -0
 1077              		.cfi_startproc
 1078              		@ args = 0, pretend = 0, frame = 0
 1079              		@ frame_needed = 0, uses_anonymous_args = 0
 1080              		.loc 1 297 1 is_stmt 0 view .LVU321
 1081 0000 10B5     		push	{r4, lr}
 1082              	.LCFI3:
 1083              		.cfi_def_cfa_offset 8
 1084              		.cfi_offset 4, -8
 1085              		.cfi_offset 14, -4
 298:Drivers/STM32F0xx_HAL_Driver/Src/stm32f0xx_ll_usb.c ****   if (ep->doublebuffer == 0U)
 1086              		.loc 1 298 3 is_stmt 1 view .LVU322
 1087              		.loc 1 298 9 is_stmt 0 view .LVU323
 1088 0002 0B7B     		ldrb	r3, [r1, #12]
 1089              		.loc 1 298 6 view .LVU324
 1090 0004 002B     		cmp	r3, #0
 1091 0006 33D1     		bne	.L40
 299:Drivers/STM32F0xx_HAL_Driver/Src/stm32f0xx_ll_usb.c ****   {
 300:Drivers/STM32F0xx_HAL_Driver/Src/stm32f0xx_ll_usb.c ****     if (ep->is_in != 0U)
 1092              		.loc 1 300 5 is_stmt 1 view .LVU325
 1093              		.loc 1 300 11 is_stmt 0 view .LVU326
 1094 0008 4B78     		ldrb	r3, [r1, #1]
 1095              		.loc 1 300 8 view .LVU327
 1096 000a 002B     		cmp	r3, #0
 1097 000c 18D0     		beq	.L41
 301:Drivers/STM32F0xx_HAL_Driver/Src/stm32f0xx_ll_usb.c ****     {
 302:Drivers/STM32F0xx_HAL_Driver/Src/stm32f0xx_ll_usb.c ****       PCD_CLEAR_TX_DTOG(USBx, ep->num);
 1098              		.loc 1 302 7 is_stmt 1 view .LVU328
 1099              	.LBB32:
ARM GAS  /tmp/cclsNgIg.s 			page 28


 1100              		.loc 1 302 7 view .LVU329
 1101              		.loc 1 302 7 view .LVU330
 1102 000e 0B78     		ldrb	r3, [r1]
 1103 0010 9B00     		lsls	r3, r3, #2
 1104 0012 C318     		adds	r3, r0, r3
 1105 0014 1A88     		ldrh	r2, [r3]
 1106              	.LVL115:
 1107              		.loc 1 302 7 view .LVU331
 1108 0016 5206     		lsls	r2, r2, #25
 1109 0018 06D5     		bpl	.L42
 1110              	.LVL116:
 1111              		.loc 1 302 7 discriminator 1 view .LVU332
 1112              	.LBB33:
 1113              		.loc 1 302 7 discriminator 1 view .LVU333
 1114              		.loc 1 302 7 discriminator 1 view .LVU334
 1115 001a 1A88     		ldrh	r2, [r3]
 1116 001c 4E4C     		ldr	r4, .L50
 1117 001e 1440     		ands	r4, r2
 1118              	.LVL117:
 1119              		.loc 1 302 7 discriminator 1 view .LVU335
 1120 0020 4E4A     		ldr	r2, .L50+4
 1121 0022 2243     		orrs	r2, r4
 1122 0024 92B2     		uxth	r2, r2
 1123 0026 1A80     		strh	r2, [r3]
 1124              	.LVL118:
 1125              	.L42:
 1126              		.loc 1 302 7 is_stmt 0 discriminator 1 view .LVU336
 1127              	.LBE33:
 1128              		.loc 1 302 7 is_stmt 1 discriminator 3 view .LVU337
 1129              	.LBE32:
 1130              		.loc 1 302 7 discriminator 3 view .LVU338
 303:Drivers/STM32F0xx_HAL_Driver/Src/stm32f0xx_ll_usb.c **** 
 304:Drivers/STM32F0xx_HAL_Driver/Src/stm32f0xx_ll_usb.c ****       /* Configure DISABLE status for the Endpoint*/
 305:Drivers/STM32F0xx_HAL_Driver/Src/stm32f0xx_ll_usb.c ****       PCD_SET_EP_TX_STATUS(USBx, ep->num, USB_EP_TX_DIS);
 1131              		.loc 1 305 7 discriminator 3 view .LVU339
 1132              	.LBB34:
 1133              		.loc 1 305 7 discriminator 3 view .LVU340
 1134              		.loc 1 305 7 discriminator 3 view .LVU341
 1135 0028 0B78     		ldrb	r3, [r1]
 1136 002a 9B00     		lsls	r3, r3, #2
 1137 002c C018     		adds	r0, r0, r3
 1138              	.LVL119:
 1139              		.loc 1 305 7 is_stmt 0 discriminator 3 view .LVU342
 1140 002e 0388     		ldrh	r3, [r0]
 1141 0030 4B4A     		ldr	r2, .L50+8
 1142 0032 1A40     		ands	r2, r3
 1143              	.LVL120:
 1144              		.loc 1 305 7 is_stmt 1 discriminator 3 view .LVU343
 1145              		.loc 1 305 7 discriminator 3 view .LVU344
 1146              		.loc 1 305 7 discriminator 3 view .LVU345
 1147 0034 4B4B     		ldr	r3, .L50+12
 1148 0036 1343     		orrs	r3, r2
 1149 0038 9BB2     		uxth	r3, r3
 1150 003a 0380     		strh	r3, [r0]
 1151              	.LBE34:
 1152              		.loc 1 305 7 discriminator 3 view .LVU346
 1153              	.LVL121:
ARM GAS  /tmp/cclsNgIg.s 			page 29


 1154              	.L43:
 306:Drivers/STM32F0xx_HAL_Driver/Src/stm32f0xx_ll_usb.c ****     }
 307:Drivers/STM32F0xx_HAL_Driver/Src/stm32f0xx_ll_usb.c ****     else
 308:Drivers/STM32F0xx_HAL_Driver/Src/stm32f0xx_ll_usb.c ****     {
 309:Drivers/STM32F0xx_HAL_Driver/Src/stm32f0xx_ll_usb.c ****       PCD_CLEAR_RX_DTOG(USBx, ep->num);
 310:Drivers/STM32F0xx_HAL_Driver/Src/stm32f0xx_ll_usb.c **** 
 311:Drivers/STM32F0xx_HAL_Driver/Src/stm32f0xx_ll_usb.c ****       /* Configure DISABLE status for the Endpoint*/
 312:Drivers/STM32F0xx_HAL_Driver/Src/stm32f0xx_ll_usb.c ****       PCD_SET_EP_RX_STATUS(USBx, ep->num, USB_EP_RX_DIS);
 313:Drivers/STM32F0xx_HAL_Driver/Src/stm32f0xx_ll_usb.c ****     }
 314:Drivers/STM32F0xx_HAL_Driver/Src/stm32f0xx_ll_usb.c ****   }
 315:Drivers/STM32F0xx_HAL_Driver/Src/stm32f0xx_ll_usb.c ****   /*Double Buffer*/
 316:Drivers/STM32F0xx_HAL_Driver/Src/stm32f0xx_ll_usb.c ****   else
 317:Drivers/STM32F0xx_HAL_Driver/Src/stm32f0xx_ll_usb.c ****   {
 318:Drivers/STM32F0xx_HAL_Driver/Src/stm32f0xx_ll_usb.c ****     if (ep->is_in == 0U)
 319:Drivers/STM32F0xx_HAL_Driver/Src/stm32f0xx_ll_usb.c ****     {
 320:Drivers/STM32F0xx_HAL_Driver/Src/stm32f0xx_ll_usb.c ****       /* Clear the data toggle bits for the endpoint IN/OUT*/
 321:Drivers/STM32F0xx_HAL_Driver/Src/stm32f0xx_ll_usb.c ****       PCD_CLEAR_RX_DTOG(USBx, ep->num);
 322:Drivers/STM32F0xx_HAL_Driver/Src/stm32f0xx_ll_usb.c ****       PCD_CLEAR_TX_DTOG(USBx, ep->num);
 323:Drivers/STM32F0xx_HAL_Driver/Src/stm32f0xx_ll_usb.c **** 
 324:Drivers/STM32F0xx_HAL_Driver/Src/stm32f0xx_ll_usb.c ****       /* Reset value of the data toggle bits for the endpoint out*/
 325:Drivers/STM32F0xx_HAL_Driver/Src/stm32f0xx_ll_usb.c ****       PCD_TX_DTOG(USBx, ep->num);
 326:Drivers/STM32F0xx_HAL_Driver/Src/stm32f0xx_ll_usb.c **** 
 327:Drivers/STM32F0xx_HAL_Driver/Src/stm32f0xx_ll_usb.c ****       PCD_SET_EP_RX_STATUS(USBx, ep->num, USB_EP_RX_DIS);
 328:Drivers/STM32F0xx_HAL_Driver/Src/stm32f0xx_ll_usb.c ****       PCD_SET_EP_TX_STATUS(USBx, ep->num, USB_EP_TX_DIS);
 329:Drivers/STM32F0xx_HAL_Driver/Src/stm32f0xx_ll_usb.c ****     }
 330:Drivers/STM32F0xx_HAL_Driver/Src/stm32f0xx_ll_usb.c ****     else
 331:Drivers/STM32F0xx_HAL_Driver/Src/stm32f0xx_ll_usb.c ****     {
 332:Drivers/STM32F0xx_HAL_Driver/Src/stm32f0xx_ll_usb.c ****       /* Clear the data toggle bits for the endpoint IN/OUT*/
 333:Drivers/STM32F0xx_HAL_Driver/Src/stm32f0xx_ll_usb.c ****       PCD_CLEAR_RX_DTOG(USBx, ep->num);
 334:Drivers/STM32F0xx_HAL_Driver/Src/stm32f0xx_ll_usb.c ****       PCD_CLEAR_TX_DTOG(USBx, ep->num);
 335:Drivers/STM32F0xx_HAL_Driver/Src/stm32f0xx_ll_usb.c ****       PCD_RX_DTOG(USBx, ep->num);
 336:Drivers/STM32F0xx_HAL_Driver/Src/stm32f0xx_ll_usb.c **** 
 337:Drivers/STM32F0xx_HAL_Driver/Src/stm32f0xx_ll_usb.c ****       /* Configure DISABLE status for the Endpoint*/
 338:Drivers/STM32F0xx_HAL_Driver/Src/stm32f0xx_ll_usb.c ****       PCD_SET_EP_TX_STATUS(USBx, ep->num, USB_EP_TX_DIS);
 339:Drivers/STM32F0xx_HAL_Driver/Src/stm32f0xx_ll_usb.c ****       PCD_SET_EP_RX_STATUS(USBx, ep->num, USB_EP_RX_DIS);
 1155              		.loc 1 339 7 discriminator 7 view .LVU347
 340:Drivers/STM32F0xx_HAL_Driver/Src/stm32f0xx_ll_usb.c ****     }
 341:Drivers/STM32F0xx_HAL_Driver/Src/stm32f0xx_ll_usb.c ****   }
 342:Drivers/STM32F0xx_HAL_Driver/Src/stm32f0xx_ll_usb.c **** 
 343:Drivers/STM32F0xx_HAL_Driver/Src/stm32f0xx_ll_usb.c ****   return HAL_OK;
 1156              		.loc 1 343 3 discriminator 7 view .LVU348
 344:Drivers/STM32F0xx_HAL_Driver/Src/stm32f0xx_ll_usb.c **** }
 1157              		.loc 1 344 1 is_stmt 0 discriminator 7 view .LVU349
 1158 003c 0020     		movs	r0, #0
 1159              		@ sp needed
 1160 003e 10BD     		pop	{r4, pc}
 1161              	.LVL122:
 1162              	.L41:
 309:Drivers/STM32F0xx_HAL_Driver/Src/stm32f0xx_ll_usb.c **** 
 1163              		.loc 1 309 7 is_stmt 1 view .LVU350
 1164              	.LBB35:
 309:Drivers/STM32F0xx_HAL_Driver/Src/stm32f0xx_ll_usb.c **** 
 1165              		.loc 1 309 7 view .LVU351
 309:Drivers/STM32F0xx_HAL_Driver/Src/stm32f0xx_ll_usb.c **** 
 1166              		.loc 1 309 7 view .LVU352
 1167 0040 0B78     		ldrb	r3, [r1]
 1168 0042 9B00     		lsls	r3, r3, #2
ARM GAS  /tmp/cclsNgIg.s 			page 30


 1169 0044 C318     		adds	r3, r0, r3
 1170 0046 1A88     		ldrh	r2, [r3]
 1171              	.LVL123:
 309:Drivers/STM32F0xx_HAL_Driver/Src/stm32f0xx_ll_usb.c **** 
 1172              		.loc 1 309 7 view .LVU353
 1173 0048 5204     		lsls	r2, r2, #17
 1174 004a 06D5     		bpl	.L44
 1175              	.LVL124:
 309:Drivers/STM32F0xx_HAL_Driver/Src/stm32f0xx_ll_usb.c **** 
 1176              		.loc 1 309 7 discriminator 1 view .LVU354
 1177              	.LBB36:
 309:Drivers/STM32F0xx_HAL_Driver/Src/stm32f0xx_ll_usb.c **** 
 1178              		.loc 1 309 7 discriminator 1 view .LVU355
 309:Drivers/STM32F0xx_HAL_Driver/Src/stm32f0xx_ll_usb.c **** 
 1179              		.loc 1 309 7 discriminator 1 view .LVU356
 1180 004c 1A88     		ldrh	r2, [r3]
 1181 004e 424C     		ldr	r4, .L50
 1182 0050 1440     		ands	r4, r2
 1183              	.LVL125:
 309:Drivers/STM32F0xx_HAL_Driver/Src/stm32f0xx_ll_usb.c **** 
 1184              		.loc 1 309 7 discriminator 1 view .LVU357
 1185 0052 454A     		ldr	r2, .L50+16
 1186 0054 2243     		orrs	r2, r4
 1187 0056 92B2     		uxth	r2, r2
 1188 0058 1A80     		strh	r2, [r3]
 1189              	.LVL126:
 1190              	.L44:
 309:Drivers/STM32F0xx_HAL_Driver/Src/stm32f0xx_ll_usb.c **** 
 1191              		.loc 1 309 7 is_stmt 0 discriminator 1 view .LVU358
 1192              	.LBE36:
 309:Drivers/STM32F0xx_HAL_Driver/Src/stm32f0xx_ll_usb.c **** 
 1193              		.loc 1 309 7 is_stmt 1 discriminator 3 view .LVU359
 1194              	.LBE35:
 309:Drivers/STM32F0xx_HAL_Driver/Src/stm32f0xx_ll_usb.c **** 
 1195              		.loc 1 309 7 discriminator 3 view .LVU360
 312:Drivers/STM32F0xx_HAL_Driver/Src/stm32f0xx_ll_usb.c ****     }
 1196              		.loc 1 312 7 discriminator 3 view .LVU361
 1197              	.LBB37:
 312:Drivers/STM32F0xx_HAL_Driver/Src/stm32f0xx_ll_usb.c ****     }
 1198              		.loc 1 312 7 discriminator 3 view .LVU362
 312:Drivers/STM32F0xx_HAL_Driver/Src/stm32f0xx_ll_usb.c ****     }
 1199              		.loc 1 312 7 discriminator 3 view .LVU363
 1200 005a 0B78     		ldrb	r3, [r1]
 1201 005c 9B00     		lsls	r3, r3, #2
 1202 005e C018     		adds	r0, r0, r3
 1203              	.LVL127:
 312:Drivers/STM32F0xx_HAL_Driver/Src/stm32f0xx_ll_usb.c ****     }
 1204              		.loc 1 312 7 is_stmt 0 discriminator 3 view .LVU364
 1205 0060 0388     		ldrh	r3, [r0]
 1206 0062 424A     		ldr	r2, .L50+20
 1207 0064 1A40     		ands	r2, r3
 1208              	.LVL128:
 312:Drivers/STM32F0xx_HAL_Driver/Src/stm32f0xx_ll_usb.c ****     }
 1209              		.loc 1 312 7 is_stmt 1 discriminator 3 view .LVU365
 312:Drivers/STM32F0xx_HAL_Driver/Src/stm32f0xx_ll_usb.c ****     }
 1210              		.loc 1 312 7 discriminator 3 view .LVU366
 312:Drivers/STM32F0xx_HAL_Driver/Src/stm32f0xx_ll_usb.c ****     }
ARM GAS  /tmp/cclsNgIg.s 			page 31


 1211              		.loc 1 312 7 discriminator 3 view .LVU367
 1212 0066 3F4B     		ldr	r3, .L50+12
 1213 0068 1343     		orrs	r3, r2
 1214 006a 9BB2     		uxth	r3, r3
 1215 006c 0380     		strh	r3, [r0]
 1216 006e E5E7     		b	.L43
 1217              	.LVL129:
 1218              	.L40:
 312:Drivers/STM32F0xx_HAL_Driver/Src/stm32f0xx_ll_usb.c ****     }
 1219              		.loc 1 312 7 is_stmt 0 discriminator 3 view .LVU368
 1220              	.LBE37:
 318:Drivers/STM32F0xx_HAL_Driver/Src/stm32f0xx_ll_usb.c ****     {
 1221              		.loc 1 318 5 is_stmt 1 view .LVU369
 318:Drivers/STM32F0xx_HAL_Driver/Src/stm32f0xx_ll_usb.c ****     {
 1222              		.loc 1 318 11 is_stmt 0 view .LVU370
 1223 0070 4B78     		ldrb	r3, [r1, #1]
 318:Drivers/STM32F0xx_HAL_Driver/Src/stm32f0xx_ll_usb.c ****     {
 1224              		.loc 1 318 8 view .LVU371
 1225 0072 002B     		cmp	r3, #0
 1226 0074 37D1     		bne	.L45
 321:Drivers/STM32F0xx_HAL_Driver/Src/stm32f0xx_ll_usb.c ****       PCD_CLEAR_TX_DTOG(USBx, ep->num);
 1227              		.loc 1 321 7 is_stmt 1 view .LVU372
 1228              	.LBB38:
 321:Drivers/STM32F0xx_HAL_Driver/Src/stm32f0xx_ll_usb.c ****       PCD_CLEAR_TX_DTOG(USBx, ep->num);
 1229              		.loc 1 321 7 view .LVU373
 321:Drivers/STM32F0xx_HAL_Driver/Src/stm32f0xx_ll_usb.c ****       PCD_CLEAR_TX_DTOG(USBx, ep->num);
 1230              		.loc 1 321 7 view .LVU374
 1231 0076 0B78     		ldrb	r3, [r1]
 1232 0078 9B00     		lsls	r3, r3, #2
 1233 007a C318     		adds	r3, r0, r3
 1234 007c 1A88     		ldrh	r2, [r3]
 1235              	.LVL130:
 321:Drivers/STM32F0xx_HAL_Driver/Src/stm32f0xx_ll_usb.c ****       PCD_CLEAR_TX_DTOG(USBx, ep->num);
 1236              		.loc 1 321 7 view .LVU375
 1237 007e 5204     		lsls	r2, r2, #17
 1238 0080 06D5     		bpl	.L46
 1239              	.LVL131:
 321:Drivers/STM32F0xx_HAL_Driver/Src/stm32f0xx_ll_usb.c ****       PCD_CLEAR_TX_DTOG(USBx, ep->num);
 1240              		.loc 1 321 7 discriminator 1 view .LVU376
 1241              	.LBB39:
 321:Drivers/STM32F0xx_HAL_Driver/Src/stm32f0xx_ll_usb.c ****       PCD_CLEAR_TX_DTOG(USBx, ep->num);
 1242              		.loc 1 321 7 discriminator 1 view .LVU377
 321:Drivers/STM32F0xx_HAL_Driver/Src/stm32f0xx_ll_usb.c ****       PCD_CLEAR_TX_DTOG(USBx, ep->num);
 1243              		.loc 1 321 7 discriminator 1 view .LVU378
 1244 0082 1A88     		ldrh	r2, [r3]
 1245 0084 344C     		ldr	r4, .L50
 1246 0086 1440     		ands	r4, r2
 1247              	.LVL132:
 321:Drivers/STM32F0xx_HAL_Driver/Src/stm32f0xx_ll_usb.c ****       PCD_CLEAR_TX_DTOG(USBx, ep->num);
 1248              		.loc 1 321 7 discriminator 1 view .LVU379
 1249 0088 374A     		ldr	r2, .L50+16
 1250 008a 2243     		orrs	r2, r4
 1251 008c 92B2     		uxth	r2, r2
 1252 008e 1A80     		strh	r2, [r3]
 1253              	.LVL133:
 1254              	.L46:
 321:Drivers/STM32F0xx_HAL_Driver/Src/stm32f0xx_ll_usb.c ****       PCD_CLEAR_TX_DTOG(USBx, ep->num);
ARM GAS  /tmp/cclsNgIg.s 			page 32


 1255              		.loc 1 321 7 is_stmt 0 discriminator 1 view .LVU380
 1256              	.LBE39:
 321:Drivers/STM32F0xx_HAL_Driver/Src/stm32f0xx_ll_usb.c ****       PCD_CLEAR_TX_DTOG(USBx, ep->num);
 1257              		.loc 1 321 7 is_stmt 1 discriminator 3 view .LVU381
 1258              	.LBE38:
 321:Drivers/STM32F0xx_HAL_Driver/Src/stm32f0xx_ll_usb.c ****       PCD_CLEAR_TX_DTOG(USBx, ep->num);
 1259              		.loc 1 321 7 discriminator 3 view .LVU382
 322:Drivers/STM32F0xx_HAL_Driver/Src/stm32f0xx_ll_usb.c **** 
 1260              		.loc 1 322 7 discriminator 3 view .LVU383
 1261              	.LBB40:
 322:Drivers/STM32F0xx_HAL_Driver/Src/stm32f0xx_ll_usb.c **** 
 1262              		.loc 1 322 7 discriminator 3 view .LVU384
 322:Drivers/STM32F0xx_HAL_Driver/Src/stm32f0xx_ll_usb.c **** 
 1263              		.loc 1 322 7 discriminator 3 view .LVU385
 1264 0090 0B78     		ldrb	r3, [r1]
 1265 0092 9B00     		lsls	r3, r3, #2
 1266 0094 C318     		adds	r3, r0, r3
 1267 0096 1A88     		ldrh	r2, [r3]
 1268              	.LVL134:
 322:Drivers/STM32F0xx_HAL_Driver/Src/stm32f0xx_ll_usb.c **** 
 1269              		.loc 1 322 7 discriminator 3 view .LVU386
 1270 0098 5206     		lsls	r2, r2, #25
 1271 009a 06D5     		bpl	.L47
 1272              	.LVL135:
 322:Drivers/STM32F0xx_HAL_Driver/Src/stm32f0xx_ll_usb.c **** 
 1273              		.loc 1 322 7 discriminator 1 view .LVU387
 1274              	.LBB41:
 322:Drivers/STM32F0xx_HAL_Driver/Src/stm32f0xx_ll_usb.c **** 
 1275              		.loc 1 322 7 discriminator 1 view .LVU388
 322:Drivers/STM32F0xx_HAL_Driver/Src/stm32f0xx_ll_usb.c **** 
 1276              		.loc 1 322 7 discriminator 1 view .LVU389
 1277 009c 1A88     		ldrh	r2, [r3]
 1278 009e 2E4C     		ldr	r4, .L50
 1279 00a0 1440     		ands	r4, r2
 1280              	.LVL136:
 322:Drivers/STM32F0xx_HAL_Driver/Src/stm32f0xx_ll_usb.c **** 
 1281              		.loc 1 322 7 discriminator 1 view .LVU390
 1282 00a2 2E4A     		ldr	r2, .L50+4
 1283 00a4 2243     		orrs	r2, r4
 1284 00a6 92B2     		uxth	r2, r2
 1285 00a8 1A80     		strh	r2, [r3]
 1286              	.LVL137:
 1287              	.L47:
 322:Drivers/STM32F0xx_HAL_Driver/Src/stm32f0xx_ll_usb.c **** 
 1288              		.loc 1 322 7 is_stmt 0 discriminator 1 view .LVU391
 1289              	.LBE41:
 322:Drivers/STM32F0xx_HAL_Driver/Src/stm32f0xx_ll_usb.c **** 
 1290              		.loc 1 322 7 is_stmt 1 discriminator 3 view .LVU392
 1291              	.LBE40:
 322:Drivers/STM32F0xx_HAL_Driver/Src/stm32f0xx_ll_usb.c **** 
 1292              		.loc 1 322 7 discriminator 3 view .LVU393
 325:Drivers/STM32F0xx_HAL_Driver/Src/stm32f0xx_ll_usb.c **** 
 1293              		.loc 1 325 7 discriminator 3 view .LVU394
 1294              	.LBB42:
 325:Drivers/STM32F0xx_HAL_Driver/Src/stm32f0xx_ll_usb.c **** 
 1295              		.loc 1 325 7 discriminator 3 view .LVU395
 325:Drivers/STM32F0xx_HAL_Driver/Src/stm32f0xx_ll_usb.c **** 
ARM GAS  /tmp/cclsNgIg.s 			page 33


 1296              		.loc 1 325 7 discriminator 3 view .LVU396
 1297 00aa 0B78     		ldrb	r3, [r1]
 1298 00ac 9B00     		lsls	r3, r3, #2
 1299 00ae C318     		adds	r3, r0, r3
 1300 00b0 1A88     		ldrh	r2, [r3]
 1301 00b2 294C     		ldr	r4, .L50
 1302 00b4 1440     		ands	r4, r2
 1303              	.LVL138:
 325:Drivers/STM32F0xx_HAL_Driver/Src/stm32f0xx_ll_usb.c **** 
 1304              		.loc 1 325 7 discriminator 3 view .LVU397
 1305 00b6 294A     		ldr	r2, .L50+4
 1306 00b8 2243     		orrs	r2, r4
 1307 00ba 92B2     		uxth	r2, r2
 1308 00bc 1A80     		strh	r2, [r3]
 1309              	.LBE42:
 325:Drivers/STM32F0xx_HAL_Driver/Src/stm32f0xx_ll_usb.c **** 
 1310              		.loc 1 325 7 discriminator 3 view .LVU398
 327:Drivers/STM32F0xx_HAL_Driver/Src/stm32f0xx_ll_usb.c ****       PCD_SET_EP_TX_STATUS(USBx, ep->num, USB_EP_TX_DIS);
 1311              		.loc 1 327 7 discriminator 3 view .LVU399
 1312              	.LBB43:
 327:Drivers/STM32F0xx_HAL_Driver/Src/stm32f0xx_ll_usb.c ****       PCD_SET_EP_TX_STATUS(USBx, ep->num, USB_EP_TX_DIS);
 1313              		.loc 1 327 7 discriminator 3 view .LVU400
 327:Drivers/STM32F0xx_HAL_Driver/Src/stm32f0xx_ll_usb.c ****       PCD_SET_EP_TX_STATUS(USBx, ep->num, USB_EP_TX_DIS);
 1314              		.loc 1 327 7 discriminator 3 view .LVU401
 1315 00be 0C78     		ldrb	r4, [r1]
 1316              	.LVL139:
 327:Drivers/STM32F0xx_HAL_Driver/Src/stm32f0xx_ll_usb.c ****       PCD_SET_EP_TX_STATUS(USBx, ep->num, USB_EP_TX_DIS);
 1317              		.loc 1 327 7 is_stmt 0 discriminator 3 view .LVU402
 1318 00c0 A400     		lsls	r4, r4, #2
 1319 00c2 0419     		adds	r4, r0, r4
 1320 00c4 2388     		ldrh	r3, [r4]
 1321 00c6 294A     		ldr	r2, .L50+20
 1322 00c8 1340     		ands	r3, r2
 1323              	.LVL140:
 327:Drivers/STM32F0xx_HAL_Driver/Src/stm32f0xx_ll_usb.c ****       PCD_SET_EP_TX_STATUS(USBx, ep->num, USB_EP_TX_DIS);
 1324              		.loc 1 327 7 is_stmt 1 discriminator 3 view .LVU403
 327:Drivers/STM32F0xx_HAL_Driver/Src/stm32f0xx_ll_usb.c ****       PCD_SET_EP_TX_STATUS(USBx, ep->num, USB_EP_TX_DIS);
 1325              		.loc 1 327 7 discriminator 3 view .LVU404
 327:Drivers/STM32F0xx_HAL_Driver/Src/stm32f0xx_ll_usb.c ****       PCD_SET_EP_TX_STATUS(USBx, ep->num, USB_EP_TX_DIS);
 1326              		.loc 1 327 7 discriminator 3 view .LVU405
 1327 00ca 264A     		ldr	r2, .L50+12
 1328 00cc 1343     		orrs	r3, r2
 1329              	.LVL141:
 327:Drivers/STM32F0xx_HAL_Driver/Src/stm32f0xx_ll_usb.c ****       PCD_SET_EP_TX_STATUS(USBx, ep->num, USB_EP_TX_DIS);
 1330              		.loc 1 327 7 is_stmt 0 discriminator 3 view .LVU406
 1331 00ce 9BB2     		uxth	r3, r3
 1332 00d0 2380     		strh	r3, [r4]
 1333              	.LBE43:
 327:Drivers/STM32F0xx_HAL_Driver/Src/stm32f0xx_ll_usb.c ****       PCD_SET_EP_TX_STATUS(USBx, ep->num, USB_EP_TX_DIS);
 1334              		.loc 1 327 7 is_stmt 1 discriminator 3 view .LVU407
 328:Drivers/STM32F0xx_HAL_Driver/Src/stm32f0xx_ll_usb.c ****     }
 1335              		.loc 1 328 7 discriminator 3 view .LVU408
 1336              	.LBB44:
 328:Drivers/STM32F0xx_HAL_Driver/Src/stm32f0xx_ll_usb.c ****     }
 1337              		.loc 1 328 7 discriminator 3 view .LVU409
 328:Drivers/STM32F0xx_HAL_Driver/Src/stm32f0xx_ll_usb.c ****     }
 1338              		.loc 1 328 7 discriminator 3 view .LVU410
ARM GAS  /tmp/cclsNgIg.s 			page 34


 1339 00d2 0B78     		ldrb	r3, [r1]
 1340 00d4 9B00     		lsls	r3, r3, #2
 1341 00d6 C018     		adds	r0, r0, r3
 1342              	.LVL142:
 328:Drivers/STM32F0xx_HAL_Driver/Src/stm32f0xx_ll_usb.c ****     }
 1343              		.loc 1 328 7 is_stmt 0 discriminator 3 view .LVU411
 1344 00d8 0388     		ldrh	r3, [r0]
 1345 00da 2149     		ldr	r1, .L50+8
 1346              	.LVL143:
 328:Drivers/STM32F0xx_HAL_Driver/Src/stm32f0xx_ll_usb.c ****     }
 1347              		.loc 1 328 7 discriminator 3 view .LVU412
 1348 00dc 0B40     		ands	r3, r1
 1349              	.LVL144:
 328:Drivers/STM32F0xx_HAL_Driver/Src/stm32f0xx_ll_usb.c ****     }
 1350              		.loc 1 328 7 is_stmt 1 discriminator 3 view .LVU413
 328:Drivers/STM32F0xx_HAL_Driver/Src/stm32f0xx_ll_usb.c ****     }
 1351              		.loc 1 328 7 discriminator 3 view .LVU414
 328:Drivers/STM32F0xx_HAL_Driver/Src/stm32f0xx_ll_usb.c ****     }
 1352              		.loc 1 328 7 discriminator 3 view .LVU415
 1353 00de 1A43     		orrs	r2, r3
 1354 00e0 92B2     		uxth	r2, r2
 1355 00e2 0280     		strh	r2, [r0]
 1356              	.LBE44:
 328:Drivers/STM32F0xx_HAL_Driver/Src/stm32f0xx_ll_usb.c ****     }
 1357              		.loc 1 328 7 discriminator 3 view .LVU416
 1358 00e4 AAE7     		b	.L43
 1359              	.LVL145:
 1360              	.L45:
 333:Drivers/STM32F0xx_HAL_Driver/Src/stm32f0xx_ll_usb.c ****       PCD_CLEAR_TX_DTOG(USBx, ep->num);
 1361              		.loc 1 333 7 view .LVU417
 1362              	.LBB45:
 333:Drivers/STM32F0xx_HAL_Driver/Src/stm32f0xx_ll_usb.c ****       PCD_CLEAR_TX_DTOG(USBx, ep->num);
 1363              		.loc 1 333 7 view .LVU418
 333:Drivers/STM32F0xx_HAL_Driver/Src/stm32f0xx_ll_usb.c ****       PCD_CLEAR_TX_DTOG(USBx, ep->num);
 1364              		.loc 1 333 7 view .LVU419
 1365 00e6 0B78     		ldrb	r3, [r1]
 1366 00e8 9B00     		lsls	r3, r3, #2
 1367 00ea C318     		adds	r3, r0, r3
 1368 00ec 1A88     		ldrh	r2, [r3]
 1369              	.LVL146:
 333:Drivers/STM32F0xx_HAL_Driver/Src/stm32f0xx_ll_usb.c ****       PCD_CLEAR_TX_DTOG(USBx, ep->num);
 1370              		.loc 1 333 7 view .LVU420
 1371 00ee 5204     		lsls	r2, r2, #17
 1372 00f0 06D5     		bpl	.L48
 1373              	.LVL147:
 333:Drivers/STM32F0xx_HAL_Driver/Src/stm32f0xx_ll_usb.c ****       PCD_CLEAR_TX_DTOG(USBx, ep->num);
 1374              		.loc 1 333 7 discriminator 1 view .LVU421
 1375              	.LBB46:
 333:Drivers/STM32F0xx_HAL_Driver/Src/stm32f0xx_ll_usb.c ****       PCD_CLEAR_TX_DTOG(USBx, ep->num);
 1376              		.loc 1 333 7 discriminator 1 view .LVU422
 333:Drivers/STM32F0xx_HAL_Driver/Src/stm32f0xx_ll_usb.c ****       PCD_CLEAR_TX_DTOG(USBx, ep->num);
 1377              		.loc 1 333 7 discriminator 1 view .LVU423
 1378 00f2 1A88     		ldrh	r2, [r3]
 1379 00f4 184C     		ldr	r4, .L50
 1380 00f6 1440     		ands	r4, r2
 1381              	.LVL148:
 333:Drivers/STM32F0xx_HAL_Driver/Src/stm32f0xx_ll_usb.c ****       PCD_CLEAR_TX_DTOG(USBx, ep->num);
ARM GAS  /tmp/cclsNgIg.s 			page 35


 1382              		.loc 1 333 7 discriminator 1 view .LVU424
 1383 00f8 1B4A     		ldr	r2, .L50+16
 1384 00fa 2243     		orrs	r2, r4
 1385 00fc 92B2     		uxth	r2, r2
 1386 00fe 1A80     		strh	r2, [r3]
 1387              	.LVL149:
 1388              	.L48:
 333:Drivers/STM32F0xx_HAL_Driver/Src/stm32f0xx_ll_usb.c ****       PCD_CLEAR_TX_DTOG(USBx, ep->num);
 1389              		.loc 1 333 7 is_stmt 0 discriminator 1 view .LVU425
 1390              	.LBE46:
 333:Drivers/STM32F0xx_HAL_Driver/Src/stm32f0xx_ll_usb.c ****       PCD_CLEAR_TX_DTOG(USBx, ep->num);
 1391              		.loc 1 333 7 is_stmt 1 discriminator 3 view .LVU426
 1392              	.LBE45:
 333:Drivers/STM32F0xx_HAL_Driver/Src/stm32f0xx_ll_usb.c ****       PCD_CLEAR_TX_DTOG(USBx, ep->num);
 1393              		.loc 1 333 7 discriminator 3 view .LVU427
 334:Drivers/STM32F0xx_HAL_Driver/Src/stm32f0xx_ll_usb.c ****       PCD_RX_DTOG(USBx, ep->num);
 1394              		.loc 1 334 7 discriminator 3 view .LVU428
 1395              	.LBB47:
 334:Drivers/STM32F0xx_HAL_Driver/Src/stm32f0xx_ll_usb.c ****       PCD_RX_DTOG(USBx, ep->num);
 1396              		.loc 1 334 7 discriminator 3 view .LVU429
 334:Drivers/STM32F0xx_HAL_Driver/Src/stm32f0xx_ll_usb.c ****       PCD_RX_DTOG(USBx, ep->num);
 1397              		.loc 1 334 7 discriminator 3 view .LVU430
 1398 0100 0B78     		ldrb	r3, [r1]
 1399 0102 9B00     		lsls	r3, r3, #2
 1400 0104 C318     		adds	r3, r0, r3
 1401 0106 1A88     		ldrh	r2, [r3]
 1402              	.LVL150:
 334:Drivers/STM32F0xx_HAL_Driver/Src/stm32f0xx_ll_usb.c ****       PCD_RX_DTOG(USBx, ep->num);
 1403              		.loc 1 334 7 discriminator 3 view .LVU431
 1404 0108 5206     		lsls	r2, r2, #25
 1405 010a 06D5     		bpl	.L49
 1406              	.LVL151:
 334:Drivers/STM32F0xx_HAL_Driver/Src/stm32f0xx_ll_usb.c ****       PCD_RX_DTOG(USBx, ep->num);
 1407              		.loc 1 334 7 discriminator 1 view .LVU432
 1408              	.LBB48:
 334:Drivers/STM32F0xx_HAL_Driver/Src/stm32f0xx_ll_usb.c ****       PCD_RX_DTOG(USBx, ep->num);
 1409              		.loc 1 334 7 discriminator 1 view .LVU433
 334:Drivers/STM32F0xx_HAL_Driver/Src/stm32f0xx_ll_usb.c ****       PCD_RX_DTOG(USBx, ep->num);
 1410              		.loc 1 334 7 discriminator 1 view .LVU434
 1411 010c 1A88     		ldrh	r2, [r3]
 1412 010e 124C     		ldr	r4, .L50
 1413 0110 1440     		ands	r4, r2
 1414              	.LVL152:
 334:Drivers/STM32F0xx_HAL_Driver/Src/stm32f0xx_ll_usb.c ****       PCD_RX_DTOG(USBx, ep->num);
 1415              		.loc 1 334 7 discriminator 1 view .LVU435
 1416 0112 124A     		ldr	r2, .L50+4
 1417 0114 2243     		orrs	r2, r4
 1418 0116 92B2     		uxth	r2, r2
 1419 0118 1A80     		strh	r2, [r3]
 1420              	.LVL153:
 1421              	.L49:
 334:Drivers/STM32F0xx_HAL_Driver/Src/stm32f0xx_ll_usb.c ****       PCD_RX_DTOG(USBx, ep->num);
 1422              		.loc 1 334 7 is_stmt 0 discriminator 1 view .LVU436
 1423              	.LBE48:
 334:Drivers/STM32F0xx_HAL_Driver/Src/stm32f0xx_ll_usb.c ****       PCD_RX_DTOG(USBx, ep->num);
 1424              		.loc 1 334 7 is_stmt 1 discriminator 3 view .LVU437
 1425              	.LBE47:
ARM GAS  /tmp/cclsNgIg.s 			page 36


 334:Drivers/STM32F0xx_HAL_Driver/Src/stm32f0xx_ll_usb.c ****       PCD_RX_DTOG(USBx, ep->num);
 1426              		.loc 1 334 7 discriminator 3 view .LVU438
 335:Drivers/STM32F0xx_HAL_Driver/Src/stm32f0xx_ll_usb.c **** 
 1427              		.loc 1 335 7 discriminator 3 view .LVU439
 1428              	.LBB49:
 335:Drivers/STM32F0xx_HAL_Driver/Src/stm32f0xx_ll_usb.c **** 
 1429              		.loc 1 335 7 discriminator 3 view .LVU440
 335:Drivers/STM32F0xx_HAL_Driver/Src/stm32f0xx_ll_usb.c **** 
 1430              		.loc 1 335 7 discriminator 3 view .LVU441
 1431 011a 0B78     		ldrb	r3, [r1]
 1432 011c 9B00     		lsls	r3, r3, #2
 1433 011e C318     		adds	r3, r0, r3
 1434 0120 1A88     		ldrh	r2, [r3]
 1435 0122 0D4C     		ldr	r4, .L50
 1436 0124 1440     		ands	r4, r2
 1437              	.LVL154:
 335:Drivers/STM32F0xx_HAL_Driver/Src/stm32f0xx_ll_usb.c **** 
 1438              		.loc 1 335 7 discriminator 3 view .LVU442
 1439 0126 104A     		ldr	r2, .L50+16
 1440 0128 2243     		orrs	r2, r4
 1441 012a 92B2     		uxth	r2, r2
 1442 012c 1A80     		strh	r2, [r3]
 1443              	.LBE49:
 335:Drivers/STM32F0xx_HAL_Driver/Src/stm32f0xx_ll_usb.c **** 
 1444              		.loc 1 335 7 discriminator 3 view .LVU443
 338:Drivers/STM32F0xx_HAL_Driver/Src/stm32f0xx_ll_usb.c ****       PCD_SET_EP_RX_STATUS(USBx, ep->num, USB_EP_RX_DIS);
 1445              		.loc 1 338 7 discriminator 3 view .LVU444
 1446              	.LBB50:
 338:Drivers/STM32F0xx_HAL_Driver/Src/stm32f0xx_ll_usb.c ****       PCD_SET_EP_RX_STATUS(USBx, ep->num, USB_EP_RX_DIS);
 1447              		.loc 1 338 7 discriminator 3 view .LVU445
 338:Drivers/STM32F0xx_HAL_Driver/Src/stm32f0xx_ll_usb.c ****       PCD_SET_EP_RX_STATUS(USBx, ep->num, USB_EP_RX_DIS);
 1448              		.loc 1 338 7 discriminator 3 view .LVU446
 1449 012e 0C78     		ldrb	r4, [r1]
 1450              	.LVL155:
 338:Drivers/STM32F0xx_HAL_Driver/Src/stm32f0xx_ll_usb.c ****       PCD_SET_EP_RX_STATUS(USBx, ep->num, USB_EP_RX_DIS);
 1451              		.loc 1 338 7 is_stmt 0 discriminator 3 view .LVU447
 1452 0130 A400     		lsls	r4, r4, #2
 1453 0132 0419     		adds	r4, r0, r4
 1454 0134 2388     		ldrh	r3, [r4]
 1455 0136 0A4A     		ldr	r2, .L50+8
 1456 0138 1340     		ands	r3, r2
 1457              	.LVL156:
 338:Drivers/STM32F0xx_HAL_Driver/Src/stm32f0xx_ll_usb.c ****       PCD_SET_EP_RX_STATUS(USBx, ep->num, USB_EP_RX_DIS);
 1458              		.loc 1 338 7 is_stmt 1 discriminator 3 view .LVU448
 338:Drivers/STM32F0xx_HAL_Driver/Src/stm32f0xx_ll_usb.c ****       PCD_SET_EP_RX_STATUS(USBx, ep->num, USB_EP_RX_DIS);
 1459              		.loc 1 338 7 discriminator 3 view .LVU449
 338:Drivers/STM32F0xx_HAL_Driver/Src/stm32f0xx_ll_usb.c ****       PCD_SET_EP_RX_STATUS(USBx, ep->num, USB_EP_RX_DIS);
 1460              		.loc 1 338 7 discriminator 3 view .LVU450
 1461 013a 0A4A     		ldr	r2, .L50+12
 1462 013c 1343     		orrs	r3, r2
 1463              	.LVL157:
 338:Drivers/STM32F0xx_HAL_Driver/Src/stm32f0xx_ll_usb.c ****       PCD_SET_EP_RX_STATUS(USBx, ep->num, USB_EP_RX_DIS);
 1464              		.loc 1 338 7 is_stmt 0 discriminator 3 view .LVU451
 1465 013e 9BB2     		uxth	r3, r3
 1466 0140 2380     		strh	r3, [r4]
 1467              	.LBE50:
 338:Drivers/STM32F0xx_HAL_Driver/Src/stm32f0xx_ll_usb.c ****       PCD_SET_EP_RX_STATUS(USBx, ep->num, USB_EP_RX_DIS);
ARM GAS  /tmp/cclsNgIg.s 			page 37


 1468              		.loc 1 338 7 is_stmt 1 discriminator 3 view .LVU452
 339:Drivers/STM32F0xx_HAL_Driver/Src/stm32f0xx_ll_usb.c ****     }
 1469              		.loc 1 339 7 discriminator 3 view .LVU453
 1470              	.LBB51:
 339:Drivers/STM32F0xx_HAL_Driver/Src/stm32f0xx_ll_usb.c ****     }
 1471              		.loc 1 339 7 discriminator 3 view .LVU454
 339:Drivers/STM32F0xx_HAL_Driver/Src/stm32f0xx_ll_usb.c ****     }
 1472              		.loc 1 339 7 discriminator 3 view .LVU455
 1473 0142 0B78     		ldrb	r3, [r1]
 1474 0144 9B00     		lsls	r3, r3, #2
 1475 0146 C018     		adds	r0, r0, r3
 1476              	.LVL158:
 339:Drivers/STM32F0xx_HAL_Driver/Src/stm32f0xx_ll_usb.c ****     }
 1477              		.loc 1 339 7 is_stmt 0 discriminator 3 view .LVU456
 1478 0148 0388     		ldrh	r3, [r0]
 1479 014a 0849     		ldr	r1, .L50+20
 1480              	.LVL159:
 339:Drivers/STM32F0xx_HAL_Driver/Src/stm32f0xx_ll_usb.c ****     }
 1481              		.loc 1 339 7 discriminator 3 view .LVU457
 1482 014c 0B40     		ands	r3, r1
 1483              	.LVL160:
 339:Drivers/STM32F0xx_HAL_Driver/Src/stm32f0xx_ll_usb.c ****     }
 1484              		.loc 1 339 7 is_stmt 1 discriminator 3 view .LVU458
 339:Drivers/STM32F0xx_HAL_Driver/Src/stm32f0xx_ll_usb.c ****     }
 1485              		.loc 1 339 7 discriminator 3 view .LVU459
 339:Drivers/STM32F0xx_HAL_Driver/Src/stm32f0xx_ll_usb.c ****     }
 1486              		.loc 1 339 7 discriminator 3 view .LVU460
 1487 014e 1A43     		orrs	r2, r3
 1488 0150 92B2     		uxth	r2, r2
 1489 0152 0280     		strh	r2, [r0]
 1490 0154 72E7     		b	.L43
 1491              	.L51:
 1492 0156 C046     		.align	2
 1493              	.L50:
 1494 0158 8F8FFFFF 		.word	-28785
 1495 015c C080FFFF 		.word	-32576
 1496 0160 BF8FFFFF 		.word	-28737
 1497 0164 8080FFFF 		.word	-32640
 1498 0168 80C0FFFF 		.word	-16256
 1499 016c 8FBFFFFF 		.word	-16497
 1500              	.LBE51:
 1501              		.cfi_endproc
 1502              	.LFE46:
 1504              		.section	.text.USB_EPSetStall,"ax",%progbits
 1505              		.align	1
 1506              		.global	USB_EPSetStall
 1507              		.syntax unified
 1508              		.code	16
 1509              		.thumb_func
 1510              		.fpu softvfp
 1512              	USB_EPSetStall:
 1513              	.LVL161:
 1514              	.LFB48:
 345:Drivers/STM32F0xx_HAL_Driver/Src/stm32f0xx_ll_usb.c **** 
 346:Drivers/STM32F0xx_HAL_Driver/Src/stm32f0xx_ll_usb.c **** /**
 347:Drivers/STM32F0xx_HAL_Driver/Src/stm32f0xx_ll_usb.c ****   * @brief  USB_EPStartXfer setup and starts a transfer over an EP
 348:Drivers/STM32F0xx_HAL_Driver/Src/stm32f0xx_ll_usb.c ****   * @param  USBx Selected device
ARM GAS  /tmp/cclsNgIg.s 			page 38


 349:Drivers/STM32F0xx_HAL_Driver/Src/stm32f0xx_ll_usb.c ****   * @param  ep pointer to endpoint structure
 350:Drivers/STM32F0xx_HAL_Driver/Src/stm32f0xx_ll_usb.c ****   * @retval HAL status
 351:Drivers/STM32F0xx_HAL_Driver/Src/stm32f0xx_ll_usb.c ****   */
 352:Drivers/STM32F0xx_HAL_Driver/Src/stm32f0xx_ll_usb.c **** HAL_StatusTypeDef USB_EPStartXfer(USB_TypeDef *USBx, USB_EPTypeDef *ep)
 353:Drivers/STM32F0xx_HAL_Driver/Src/stm32f0xx_ll_usb.c **** {
 354:Drivers/STM32F0xx_HAL_Driver/Src/stm32f0xx_ll_usb.c ****   uint32_t len;
 355:Drivers/STM32F0xx_HAL_Driver/Src/stm32f0xx_ll_usb.c ****   uint16_t pmabuffer;
 356:Drivers/STM32F0xx_HAL_Driver/Src/stm32f0xx_ll_usb.c ****   uint16_t wEPVal;
 357:Drivers/STM32F0xx_HAL_Driver/Src/stm32f0xx_ll_usb.c **** 
 358:Drivers/STM32F0xx_HAL_Driver/Src/stm32f0xx_ll_usb.c ****   /* IN endpoint */
 359:Drivers/STM32F0xx_HAL_Driver/Src/stm32f0xx_ll_usb.c ****   if (ep->is_in == 1U)
 360:Drivers/STM32F0xx_HAL_Driver/Src/stm32f0xx_ll_usb.c ****   {
 361:Drivers/STM32F0xx_HAL_Driver/Src/stm32f0xx_ll_usb.c ****     /*Multi packet transfer*/
 362:Drivers/STM32F0xx_HAL_Driver/Src/stm32f0xx_ll_usb.c ****     if (ep->xfer_len > ep->maxpacket)
 363:Drivers/STM32F0xx_HAL_Driver/Src/stm32f0xx_ll_usb.c ****     {
 364:Drivers/STM32F0xx_HAL_Driver/Src/stm32f0xx_ll_usb.c ****       len = ep->maxpacket;
 365:Drivers/STM32F0xx_HAL_Driver/Src/stm32f0xx_ll_usb.c ****     }
 366:Drivers/STM32F0xx_HAL_Driver/Src/stm32f0xx_ll_usb.c ****     else
 367:Drivers/STM32F0xx_HAL_Driver/Src/stm32f0xx_ll_usb.c ****     {
 368:Drivers/STM32F0xx_HAL_Driver/Src/stm32f0xx_ll_usb.c ****       len = ep->xfer_len;
 369:Drivers/STM32F0xx_HAL_Driver/Src/stm32f0xx_ll_usb.c ****     }
 370:Drivers/STM32F0xx_HAL_Driver/Src/stm32f0xx_ll_usb.c **** 
 371:Drivers/STM32F0xx_HAL_Driver/Src/stm32f0xx_ll_usb.c ****     /* configure and validate Tx endpoint */
 372:Drivers/STM32F0xx_HAL_Driver/Src/stm32f0xx_ll_usb.c ****     if (ep->doublebuffer == 0U)
 373:Drivers/STM32F0xx_HAL_Driver/Src/stm32f0xx_ll_usb.c ****     {
 374:Drivers/STM32F0xx_HAL_Driver/Src/stm32f0xx_ll_usb.c ****       USB_WritePMA(USBx, ep->xfer_buff, ep->pmaadress, (uint16_t)len);
 375:Drivers/STM32F0xx_HAL_Driver/Src/stm32f0xx_ll_usb.c ****       PCD_SET_EP_TX_CNT(USBx, ep->num, len);
 376:Drivers/STM32F0xx_HAL_Driver/Src/stm32f0xx_ll_usb.c ****     }
 377:Drivers/STM32F0xx_HAL_Driver/Src/stm32f0xx_ll_usb.c ****     else
 378:Drivers/STM32F0xx_HAL_Driver/Src/stm32f0xx_ll_usb.c ****     {
 379:Drivers/STM32F0xx_HAL_Driver/Src/stm32f0xx_ll_usb.c ****       /* double buffer bulk management */
 380:Drivers/STM32F0xx_HAL_Driver/Src/stm32f0xx_ll_usb.c ****       if (ep->type == EP_TYPE_BULK)
 381:Drivers/STM32F0xx_HAL_Driver/Src/stm32f0xx_ll_usb.c ****       {
 382:Drivers/STM32F0xx_HAL_Driver/Src/stm32f0xx_ll_usb.c ****         if (ep->xfer_len_db > ep->maxpacket)
 383:Drivers/STM32F0xx_HAL_Driver/Src/stm32f0xx_ll_usb.c ****         {
 384:Drivers/STM32F0xx_HAL_Driver/Src/stm32f0xx_ll_usb.c ****           /* enable double buffer */
 385:Drivers/STM32F0xx_HAL_Driver/Src/stm32f0xx_ll_usb.c ****           PCD_SET_EP_DBUF(USBx, ep->num);
 386:Drivers/STM32F0xx_HAL_Driver/Src/stm32f0xx_ll_usb.c **** 
 387:Drivers/STM32F0xx_HAL_Driver/Src/stm32f0xx_ll_usb.c ****           /* each Time to write in PMA xfer_len_db will */
 388:Drivers/STM32F0xx_HAL_Driver/Src/stm32f0xx_ll_usb.c ****           ep->xfer_len_db -= len;
 389:Drivers/STM32F0xx_HAL_Driver/Src/stm32f0xx_ll_usb.c **** 
 390:Drivers/STM32F0xx_HAL_Driver/Src/stm32f0xx_ll_usb.c ****           /* Fill the two first buffer in the Buffer0 & Buffer1 */
 391:Drivers/STM32F0xx_HAL_Driver/Src/stm32f0xx_ll_usb.c ****           if ((PCD_GET_ENDPOINT(USBx, ep->num) & USB_EP_DTOG_TX) != 0U)
 392:Drivers/STM32F0xx_HAL_Driver/Src/stm32f0xx_ll_usb.c ****           {
 393:Drivers/STM32F0xx_HAL_Driver/Src/stm32f0xx_ll_usb.c ****             /* Set the Double buffer counter for pmabuffer1 */
 394:Drivers/STM32F0xx_HAL_Driver/Src/stm32f0xx_ll_usb.c ****             PCD_SET_EP_DBUF1_CNT(USBx, ep->num, ep->is_in, len);
 395:Drivers/STM32F0xx_HAL_Driver/Src/stm32f0xx_ll_usb.c ****             pmabuffer = ep->pmaaddr1;
 396:Drivers/STM32F0xx_HAL_Driver/Src/stm32f0xx_ll_usb.c **** 
 397:Drivers/STM32F0xx_HAL_Driver/Src/stm32f0xx_ll_usb.c ****             /* Write the user buffer to USB PMA */
 398:Drivers/STM32F0xx_HAL_Driver/Src/stm32f0xx_ll_usb.c ****             USB_WritePMA(USBx, ep->xfer_buff, pmabuffer, (uint16_t)len);
 399:Drivers/STM32F0xx_HAL_Driver/Src/stm32f0xx_ll_usb.c ****             ep->xfer_buff += len;
 400:Drivers/STM32F0xx_HAL_Driver/Src/stm32f0xx_ll_usb.c **** 
 401:Drivers/STM32F0xx_HAL_Driver/Src/stm32f0xx_ll_usb.c ****             if (ep->xfer_len_db > ep->maxpacket)
 402:Drivers/STM32F0xx_HAL_Driver/Src/stm32f0xx_ll_usb.c ****             {
 403:Drivers/STM32F0xx_HAL_Driver/Src/stm32f0xx_ll_usb.c ****               ep->xfer_len_db -= len;
 404:Drivers/STM32F0xx_HAL_Driver/Src/stm32f0xx_ll_usb.c ****             }
 405:Drivers/STM32F0xx_HAL_Driver/Src/stm32f0xx_ll_usb.c ****             else
ARM GAS  /tmp/cclsNgIg.s 			page 39


 406:Drivers/STM32F0xx_HAL_Driver/Src/stm32f0xx_ll_usb.c ****             {
 407:Drivers/STM32F0xx_HAL_Driver/Src/stm32f0xx_ll_usb.c ****               len = ep->xfer_len_db;
 408:Drivers/STM32F0xx_HAL_Driver/Src/stm32f0xx_ll_usb.c ****               ep->xfer_len_db = 0U;
 409:Drivers/STM32F0xx_HAL_Driver/Src/stm32f0xx_ll_usb.c ****             }
 410:Drivers/STM32F0xx_HAL_Driver/Src/stm32f0xx_ll_usb.c **** 
 411:Drivers/STM32F0xx_HAL_Driver/Src/stm32f0xx_ll_usb.c ****             /* Set the Double buffer counter for pmabuffer0 */
 412:Drivers/STM32F0xx_HAL_Driver/Src/stm32f0xx_ll_usb.c ****             PCD_SET_EP_DBUF0_CNT(USBx, ep->num, ep->is_in, len);
 413:Drivers/STM32F0xx_HAL_Driver/Src/stm32f0xx_ll_usb.c ****             pmabuffer = ep->pmaaddr0;
 414:Drivers/STM32F0xx_HAL_Driver/Src/stm32f0xx_ll_usb.c **** 
 415:Drivers/STM32F0xx_HAL_Driver/Src/stm32f0xx_ll_usb.c ****             /* Write the user buffer to USB PMA */
 416:Drivers/STM32F0xx_HAL_Driver/Src/stm32f0xx_ll_usb.c ****             USB_WritePMA(USBx, ep->xfer_buff, pmabuffer, (uint16_t)len);
 417:Drivers/STM32F0xx_HAL_Driver/Src/stm32f0xx_ll_usb.c ****           }
 418:Drivers/STM32F0xx_HAL_Driver/Src/stm32f0xx_ll_usb.c ****           else
 419:Drivers/STM32F0xx_HAL_Driver/Src/stm32f0xx_ll_usb.c ****           {
 420:Drivers/STM32F0xx_HAL_Driver/Src/stm32f0xx_ll_usb.c ****             /* Set the Double buffer counter for pmabuffer0 */
 421:Drivers/STM32F0xx_HAL_Driver/Src/stm32f0xx_ll_usb.c ****             PCD_SET_EP_DBUF0_CNT(USBx, ep->num, ep->is_in, len);
 422:Drivers/STM32F0xx_HAL_Driver/Src/stm32f0xx_ll_usb.c ****             pmabuffer = ep->pmaaddr0;
 423:Drivers/STM32F0xx_HAL_Driver/Src/stm32f0xx_ll_usb.c **** 
 424:Drivers/STM32F0xx_HAL_Driver/Src/stm32f0xx_ll_usb.c ****             /* Write the user buffer to USB PMA */
 425:Drivers/STM32F0xx_HAL_Driver/Src/stm32f0xx_ll_usb.c ****             USB_WritePMA(USBx, ep->xfer_buff, pmabuffer, (uint16_t)len);
 426:Drivers/STM32F0xx_HAL_Driver/Src/stm32f0xx_ll_usb.c ****             ep->xfer_buff += len;
 427:Drivers/STM32F0xx_HAL_Driver/Src/stm32f0xx_ll_usb.c **** 
 428:Drivers/STM32F0xx_HAL_Driver/Src/stm32f0xx_ll_usb.c ****             if (ep->xfer_len_db > ep->maxpacket)
 429:Drivers/STM32F0xx_HAL_Driver/Src/stm32f0xx_ll_usb.c ****             {
 430:Drivers/STM32F0xx_HAL_Driver/Src/stm32f0xx_ll_usb.c ****               ep->xfer_len_db -= len;
 431:Drivers/STM32F0xx_HAL_Driver/Src/stm32f0xx_ll_usb.c ****             }
 432:Drivers/STM32F0xx_HAL_Driver/Src/stm32f0xx_ll_usb.c ****             else
 433:Drivers/STM32F0xx_HAL_Driver/Src/stm32f0xx_ll_usb.c ****             {
 434:Drivers/STM32F0xx_HAL_Driver/Src/stm32f0xx_ll_usb.c ****               len = ep->xfer_len_db;
 435:Drivers/STM32F0xx_HAL_Driver/Src/stm32f0xx_ll_usb.c ****               ep->xfer_len_db = 0U;
 436:Drivers/STM32F0xx_HAL_Driver/Src/stm32f0xx_ll_usb.c ****             }
 437:Drivers/STM32F0xx_HAL_Driver/Src/stm32f0xx_ll_usb.c **** 
 438:Drivers/STM32F0xx_HAL_Driver/Src/stm32f0xx_ll_usb.c ****             /* Set the Double buffer counter for pmabuffer1 */
 439:Drivers/STM32F0xx_HAL_Driver/Src/stm32f0xx_ll_usb.c ****             PCD_SET_EP_DBUF1_CNT(USBx, ep->num, ep->is_in, len);
 440:Drivers/STM32F0xx_HAL_Driver/Src/stm32f0xx_ll_usb.c ****             pmabuffer = ep->pmaaddr1;
 441:Drivers/STM32F0xx_HAL_Driver/Src/stm32f0xx_ll_usb.c **** 
 442:Drivers/STM32F0xx_HAL_Driver/Src/stm32f0xx_ll_usb.c ****             /* Write the user buffer to USB PMA */
 443:Drivers/STM32F0xx_HAL_Driver/Src/stm32f0xx_ll_usb.c ****             USB_WritePMA(USBx, ep->xfer_buff, pmabuffer, (uint16_t)len);
 444:Drivers/STM32F0xx_HAL_Driver/Src/stm32f0xx_ll_usb.c ****           }
 445:Drivers/STM32F0xx_HAL_Driver/Src/stm32f0xx_ll_usb.c ****         }
 446:Drivers/STM32F0xx_HAL_Driver/Src/stm32f0xx_ll_usb.c ****         /* auto Switch to single buffer mode when transfer <Mps no need to manage in double buffer 
 447:Drivers/STM32F0xx_HAL_Driver/Src/stm32f0xx_ll_usb.c ****         else
 448:Drivers/STM32F0xx_HAL_Driver/Src/stm32f0xx_ll_usb.c ****         {
 449:Drivers/STM32F0xx_HAL_Driver/Src/stm32f0xx_ll_usb.c ****           len = ep->xfer_len_db;
 450:Drivers/STM32F0xx_HAL_Driver/Src/stm32f0xx_ll_usb.c **** 
 451:Drivers/STM32F0xx_HAL_Driver/Src/stm32f0xx_ll_usb.c ****           /* disable double buffer mode */
 452:Drivers/STM32F0xx_HAL_Driver/Src/stm32f0xx_ll_usb.c ****           PCD_CLEAR_EP_DBUF(USBx, ep->num);
 453:Drivers/STM32F0xx_HAL_Driver/Src/stm32f0xx_ll_usb.c **** 
 454:Drivers/STM32F0xx_HAL_Driver/Src/stm32f0xx_ll_usb.c ****           /* Set Tx count with nbre of byte to be transmitted */
 455:Drivers/STM32F0xx_HAL_Driver/Src/stm32f0xx_ll_usb.c ****           PCD_SET_EP_TX_CNT(USBx, ep->num, len);
 456:Drivers/STM32F0xx_HAL_Driver/Src/stm32f0xx_ll_usb.c ****           pmabuffer = ep->pmaaddr0;
 457:Drivers/STM32F0xx_HAL_Driver/Src/stm32f0xx_ll_usb.c **** 
 458:Drivers/STM32F0xx_HAL_Driver/Src/stm32f0xx_ll_usb.c ****           /* Write the user buffer to USB PMA */
 459:Drivers/STM32F0xx_HAL_Driver/Src/stm32f0xx_ll_usb.c ****           USB_WritePMA(USBx, ep->xfer_buff, pmabuffer, (uint16_t)len);
 460:Drivers/STM32F0xx_HAL_Driver/Src/stm32f0xx_ll_usb.c ****         }
 461:Drivers/STM32F0xx_HAL_Driver/Src/stm32f0xx_ll_usb.c ****       }/* end if bulk double buffer */
 462:Drivers/STM32F0xx_HAL_Driver/Src/stm32f0xx_ll_usb.c **** 
ARM GAS  /tmp/cclsNgIg.s 			page 40


 463:Drivers/STM32F0xx_HAL_Driver/Src/stm32f0xx_ll_usb.c ****       /* manage isochronous double buffer IN mode */
 464:Drivers/STM32F0xx_HAL_Driver/Src/stm32f0xx_ll_usb.c ****       else
 465:Drivers/STM32F0xx_HAL_Driver/Src/stm32f0xx_ll_usb.c ****       {
 466:Drivers/STM32F0xx_HAL_Driver/Src/stm32f0xx_ll_usb.c ****         /* Write the data to the USB endpoint */
 467:Drivers/STM32F0xx_HAL_Driver/Src/stm32f0xx_ll_usb.c ****         if ((PCD_GET_ENDPOINT(USBx, ep->num) & USB_EP_DTOG_TX) != 0U)
 468:Drivers/STM32F0xx_HAL_Driver/Src/stm32f0xx_ll_usb.c ****         {
 469:Drivers/STM32F0xx_HAL_Driver/Src/stm32f0xx_ll_usb.c ****           /* Set the Double buffer counter for pmabuffer1 */
 470:Drivers/STM32F0xx_HAL_Driver/Src/stm32f0xx_ll_usb.c ****           PCD_SET_EP_DBUF1_CNT(USBx, ep->num, ep->is_in, len);
 471:Drivers/STM32F0xx_HAL_Driver/Src/stm32f0xx_ll_usb.c ****           pmabuffer = ep->pmaaddr1;
 472:Drivers/STM32F0xx_HAL_Driver/Src/stm32f0xx_ll_usb.c ****         }
 473:Drivers/STM32F0xx_HAL_Driver/Src/stm32f0xx_ll_usb.c ****         else
 474:Drivers/STM32F0xx_HAL_Driver/Src/stm32f0xx_ll_usb.c ****         {
 475:Drivers/STM32F0xx_HAL_Driver/Src/stm32f0xx_ll_usb.c ****           /* Set the Double buffer counter for pmabuffer0 */
 476:Drivers/STM32F0xx_HAL_Driver/Src/stm32f0xx_ll_usb.c ****           PCD_SET_EP_DBUF0_CNT(USBx, ep->num, ep->is_in, len);
 477:Drivers/STM32F0xx_HAL_Driver/Src/stm32f0xx_ll_usb.c ****           pmabuffer = ep->pmaaddr0;
 478:Drivers/STM32F0xx_HAL_Driver/Src/stm32f0xx_ll_usb.c ****         }
 479:Drivers/STM32F0xx_HAL_Driver/Src/stm32f0xx_ll_usb.c **** 
 480:Drivers/STM32F0xx_HAL_Driver/Src/stm32f0xx_ll_usb.c ****         USB_WritePMA(USBx, ep->xfer_buff, pmabuffer, (uint16_t)len);
 481:Drivers/STM32F0xx_HAL_Driver/Src/stm32f0xx_ll_usb.c ****         PCD_FreeUserBuffer(USBx, ep->num, ep->is_in);
 482:Drivers/STM32F0xx_HAL_Driver/Src/stm32f0xx_ll_usb.c ****       }
 483:Drivers/STM32F0xx_HAL_Driver/Src/stm32f0xx_ll_usb.c ****     }
 484:Drivers/STM32F0xx_HAL_Driver/Src/stm32f0xx_ll_usb.c **** 
 485:Drivers/STM32F0xx_HAL_Driver/Src/stm32f0xx_ll_usb.c ****     PCD_SET_EP_TX_STATUS(USBx, ep->num, USB_EP_TX_VALID);
 486:Drivers/STM32F0xx_HAL_Driver/Src/stm32f0xx_ll_usb.c ****   }
 487:Drivers/STM32F0xx_HAL_Driver/Src/stm32f0xx_ll_usb.c ****   else /* OUT endpoint */
 488:Drivers/STM32F0xx_HAL_Driver/Src/stm32f0xx_ll_usb.c ****   {
 489:Drivers/STM32F0xx_HAL_Driver/Src/stm32f0xx_ll_usb.c ****     if (ep->doublebuffer == 0U)
 490:Drivers/STM32F0xx_HAL_Driver/Src/stm32f0xx_ll_usb.c ****     {
 491:Drivers/STM32F0xx_HAL_Driver/Src/stm32f0xx_ll_usb.c ****       /* Multi packet transfer */
 492:Drivers/STM32F0xx_HAL_Driver/Src/stm32f0xx_ll_usb.c ****       if (ep->xfer_len > ep->maxpacket)
 493:Drivers/STM32F0xx_HAL_Driver/Src/stm32f0xx_ll_usb.c ****       {
 494:Drivers/STM32F0xx_HAL_Driver/Src/stm32f0xx_ll_usb.c ****         len = ep->maxpacket;
 495:Drivers/STM32F0xx_HAL_Driver/Src/stm32f0xx_ll_usb.c ****         ep->xfer_len -= len;
 496:Drivers/STM32F0xx_HAL_Driver/Src/stm32f0xx_ll_usb.c ****       }
 497:Drivers/STM32F0xx_HAL_Driver/Src/stm32f0xx_ll_usb.c ****       else
 498:Drivers/STM32F0xx_HAL_Driver/Src/stm32f0xx_ll_usb.c ****       {
 499:Drivers/STM32F0xx_HAL_Driver/Src/stm32f0xx_ll_usb.c ****         len = ep->xfer_len;
 500:Drivers/STM32F0xx_HAL_Driver/Src/stm32f0xx_ll_usb.c ****         ep->xfer_len = 0U;
 501:Drivers/STM32F0xx_HAL_Driver/Src/stm32f0xx_ll_usb.c ****       }
 502:Drivers/STM32F0xx_HAL_Driver/Src/stm32f0xx_ll_usb.c ****       /* configure and validate Rx endpoint */
 503:Drivers/STM32F0xx_HAL_Driver/Src/stm32f0xx_ll_usb.c ****       PCD_SET_EP_RX_CNT(USBx, ep->num, len);
 504:Drivers/STM32F0xx_HAL_Driver/Src/stm32f0xx_ll_usb.c ****     }
 505:Drivers/STM32F0xx_HAL_Driver/Src/stm32f0xx_ll_usb.c ****     else
 506:Drivers/STM32F0xx_HAL_Driver/Src/stm32f0xx_ll_usb.c ****     {
 507:Drivers/STM32F0xx_HAL_Driver/Src/stm32f0xx_ll_usb.c ****       /* First Transfer Coming From HAL_PCD_EP_Receive & From ISR */
 508:Drivers/STM32F0xx_HAL_Driver/Src/stm32f0xx_ll_usb.c ****       /* Set the Double buffer counter */
 509:Drivers/STM32F0xx_HAL_Driver/Src/stm32f0xx_ll_usb.c ****       if (ep->type == EP_TYPE_BULK)
 510:Drivers/STM32F0xx_HAL_Driver/Src/stm32f0xx_ll_usb.c ****       {
 511:Drivers/STM32F0xx_HAL_Driver/Src/stm32f0xx_ll_usb.c ****         PCD_SET_EP_DBUF_CNT(USBx, ep->num, ep->is_in, ep->maxpacket);
 512:Drivers/STM32F0xx_HAL_Driver/Src/stm32f0xx_ll_usb.c **** 
 513:Drivers/STM32F0xx_HAL_Driver/Src/stm32f0xx_ll_usb.c ****         /* Coming from ISR */
 514:Drivers/STM32F0xx_HAL_Driver/Src/stm32f0xx_ll_usb.c ****         if (ep->xfer_count != 0U)
 515:Drivers/STM32F0xx_HAL_Driver/Src/stm32f0xx_ll_usb.c ****         {
 516:Drivers/STM32F0xx_HAL_Driver/Src/stm32f0xx_ll_usb.c ****           /* update last value to check if there is blocking state */
 517:Drivers/STM32F0xx_HAL_Driver/Src/stm32f0xx_ll_usb.c ****           wEPVal = PCD_GET_ENDPOINT(USBx, ep->num);
 518:Drivers/STM32F0xx_HAL_Driver/Src/stm32f0xx_ll_usb.c **** 
 519:Drivers/STM32F0xx_HAL_Driver/Src/stm32f0xx_ll_usb.c ****           /*Blocking State */
ARM GAS  /tmp/cclsNgIg.s 			page 41


 520:Drivers/STM32F0xx_HAL_Driver/Src/stm32f0xx_ll_usb.c ****           if ((((wEPVal & USB_EP_DTOG_RX) != 0U) && ((wEPVal & USB_EP_DTOG_TX) != 0U)) ||
 521:Drivers/STM32F0xx_HAL_Driver/Src/stm32f0xx_ll_usb.c ****               (((wEPVal & USB_EP_DTOG_RX) == 0U) && ((wEPVal & USB_EP_DTOG_TX) == 0U)))
 522:Drivers/STM32F0xx_HAL_Driver/Src/stm32f0xx_ll_usb.c ****           {
 523:Drivers/STM32F0xx_HAL_Driver/Src/stm32f0xx_ll_usb.c ****             PCD_FreeUserBuffer(USBx, ep->num, 0U);
 524:Drivers/STM32F0xx_HAL_Driver/Src/stm32f0xx_ll_usb.c ****           }
 525:Drivers/STM32F0xx_HAL_Driver/Src/stm32f0xx_ll_usb.c ****         }
 526:Drivers/STM32F0xx_HAL_Driver/Src/stm32f0xx_ll_usb.c ****       }
 527:Drivers/STM32F0xx_HAL_Driver/Src/stm32f0xx_ll_usb.c ****       /* iso out double */
 528:Drivers/STM32F0xx_HAL_Driver/Src/stm32f0xx_ll_usb.c ****       else if (ep->type == EP_TYPE_ISOC)
 529:Drivers/STM32F0xx_HAL_Driver/Src/stm32f0xx_ll_usb.c ****       {
 530:Drivers/STM32F0xx_HAL_Driver/Src/stm32f0xx_ll_usb.c ****         /* Multi packet transfer */
 531:Drivers/STM32F0xx_HAL_Driver/Src/stm32f0xx_ll_usb.c ****         if (ep->xfer_len > ep->maxpacket)
 532:Drivers/STM32F0xx_HAL_Driver/Src/stm32f0xx_ll_usb.c ****         {
 533:Drivers/STM32F0xx_HAL_Driver/Src/stm32f0xx_ll_usb.c ****           len = ep->maxpacket;
 534:Drivers/STM32F0xx_HAL_Driver/Src/stm32f0xx_ll_usb.c ****           ep->xfer_len -= len;
 535:Drivers/STM32F0xx_HAL_Driver/Src/stm32f0xx_ll_usb.c ****         }
 536:Drivers/STM32F0xx_HAL_Driver/Src/stm32f0xx_ll_usb.c ****         else
 537:Drivers/STM32F0xx_HAL_Driver/Src/stm32f0xx_ll_usb.c ****         {
 538:Drivers/STM32F0xx_HAL_Driver/Src/stm32f0xx_ll_usb.c ****           len = ep->xfer_len;
 539:Drivers/STM32F0xx_HAL_Driver/Src/stm32f0xx_ll_usb.c ****           ep->xfer_len = 0U;
 540:Drivers/STM32F0xx_HAL_Driver/Src/stm32f0xx_ll_usb.c ****         }
 541:Drivers/STM32F0xx_HAL_Driver/Src/stm32f0xx_ll_usb.c ****         PCD_SET_EP_DBUF_CNT(USBx, ep->num, ep->is_in, len);
 542:Drivers/STM32F0xx_HAL_Driver/Src/stm32f0xx_ll_usb.c ****       }
 543:Drivers/STM32F0xx_HAL_Driver/Src/stm32f0xx_ll_usb.c ****       else
 544:Drivers/STM32F0xx_HAL_Driver/Src/stm32f0xx_ll_usb.c ****       {
 545:Drivers/STM32F0xx_HAL_Driver/Src/stm32f0xx_ll_usb.c ****         return HAL_ERROR;
 546:Drivers/STM32F0xx_HAL_Driver/Src/stm32f0xx_ll_usb.c ****       }
 547:Drivers/STM32F0xx_HAL_Driver/Src/stm32f0xx_ll_usb.c ****     }
 548:Drivers/STM32F0xx_HAL_Driver/Src/stm32f0xx_ll_usb.c **** 
 549:Drivers/STM32F0xx_HAL_Driver/Src/stm32f0xx_ll_usb.c ****     PCD_SET_EP_RX_STATUS(USBx, ep->num, USB_EP_RX_VALID);
 550:Drivers/STM32F0xx_HAL_Driver/Src/stm32f0xx_ll_usb.c ****   }
 551:Drivers/STM32F0xx_HAL_Driver/Src/stm32f0xx_ll_usb.c **** 
 552:Drivers/STM32F0xx_HAL_Driver/Src/stm32f0xx_ll_usb.c ****   return HAL_OK;
 553:Drivers/STM32F0xx_HAL_Driver/Src/stm32f0xx_ll_usb.c **** }
 554:Drivers/STM32F0xx_HAL_Driver/Src/stm32f0xx_ll_usb.c **** 
 555:Drivers/STM32F0xx_HAL_Driver/Src/stm32f0xx_ll_usb.c **** 
 556:Drivers/STM32F0xx_HAL_Driver/Src/stm32f0xx_ll_usb.c **** /**
 557:Drivers/STM32F0xx_HAL_Driver/Src/stm32f0xx_ll_usb.c ****   * @brief  USB_EPSetStall set a stall condition over an EP
 558:Drivers/STM32F0xx_HAL_Driver/Src/stm32f0xx_ll_usb.c ****   * @param  USBx Selected device
 559:Drivers/STM32F0xx_HAL_Driver/Src/stm32f0xx_ll_usb.c ****   * @param  ep pointer to endpoint structure
 560:Drivers/STM32F0xx_HAL_Driver/Src/stm32f0xx_ll_usb.c ****   * @retval HAL status
 561:Drivers/STM32F0xx_HAL_Driver/Src/stm32f0xx_ll_usb.c ****   */
 562:Drivers/STM32F0xx_HAL_Driver/Src/stm32f0xx_ll_usb.c **** HAL_StatusTypeDef USB_EPSetStall(USB_TypeDef *USBx, USB_EPTypeDef *ep)
 563:Drivers/STM32F0xx_HAL_Driver/Src/stm32f0xx_ll_usb.c **** {
 1515              		.loc 1 563 1 view -0
 1516              		.cfi_startproc
 1517              		@ args = 0, pretend = 0, frame = 0
 1518              		@ frame_needed = 0, uses_anonymous_args = 0
 1519              		@ link register save eliminated.
 564:Drivers/STM32F0xx_HAL_Driver/Src/stm32f0xx_ll_usb.c ****   if (ep->is_in != 0U)
 1520              		.loc 1 564 3 view .LVU462
 1521              		.loc 1 564 9 is_stmt 0 view .LVU463
 1522 0000 4B78     		ldrb	r3, [r1, #1]
 1523              		.loc 1 564 6 view .LVU464
 1524 0002 002B     		cmp	r3, #0
 1525 0004 0ED0     		beq	.L53
 565:Drivers/STM32F0xx_HAL_Driver/Src/stm32f0xx_ll_usb.c ****   {
ARM GAS  /tmp/cclsNgIg.s 			page 42


 566:Drivers/STM32F0xx_HAL_Driver/Src/stm32f0xx_ll_usb.c ****     PCD_SET_EP_TX_STATUS(USBx, ep->num, USB_EP_TX_STALL);
 1526              		.loc 1 566 5 is_stmt 1 view .LVU465
 1527              	.LBB52:
 1528              		.loc 1 566 5 view .LVU466
 1529              		.loc 1 566 5 view .LVU467
 1530 0006 0B78     		ldrb	r3, [r1]
 1531 0008 9B00     		lsls	r3, r3, #2
 1532 000a C018     		adds	r0, r0, r3
 1533              	.LVL162:
 1534              		.loc 1 566 5 is_stmt 0 view .LVU468
 1535 000c 0388     		ldrh	r3, [r0]
 1536 000e 0C4A     		ldr	r2, .L55
 1537 0010 1340     		ands	r3, r2
 1538              	.LVL163:
 1539              		.loc 1 566 5 is_stmt 1 view .LVU469
 1540              		.loc 1 566 5 view .LVU470
 1541 0012 1022     		movs	r2, #16
 1542 0014 5340     		eors	r3, r2
 1543              	.LVL164:
 1544              		.loc 1 566 5 is_stmt 0 view .LVU471
 1545 0016 9BB2     		uxth	r3, r3
 1546              	.LVL165:
 1547              		.loc 1 566 5 is_stmt 1 view .LVU472
 1548              		.loc 1 566 5 view .LVU473
 1549 0018 0A4A     		ldr	r2, .L55+4
 1550 001a 1343     		orrs	r3, r2
 1551              	.LVL166:
 1552              		.loc 1 566 5 is_stmt 0 view .LVU474
 1553 001c 9BB2     		uxth	r3, r3
 1554 001e 0380     		strh	r3, [r0]
 1555              	.LBE52:
 1556              		.loc 1 566 5 is_stmt 1 view .LVU475
 1557              	.L54:
 567:Drivers/STM32F0xx_HAL_Driver/Src/stm32f0xx_ll_usb.c ****   }
 568:Drivers/STM32F0xx_HAL_Driver/Src/stm32f0xx_ll_usb.c ****   else
 569:Drivers/STM32F0xx_HAL_Driver/Src/stm32f0xx_ll_usb.c ****   {
 570:Drivers/STM32F0xx_HAL_Driver/Src/stm32f0xx_ll_usb.c ****     PCD_SET_EP_RX_STATUS(USBx, ep->num, USB_EP_RX_STALL);
 1558              		.loc 1 570 5 discriminator 7 view .LVU476
 571:Drivers/STM32F0xx_HAL_Driver/Src/stm32f0xx_ll_usb.c ****   }
 572:Drivers/STM32F0xx_HAL_Driver/Src/stm32f0xx_ll_usb.c **** 
 573:Drivers/STM32F0xx_HAL_Driver/Src/stm32f0xx_ll_usb.c ****   return HAL_OK;
 1559              		.loc 1 573 3 discriminator 7 view .LVU477
 574:Drivers/STM32F0xx_HAL_Driver/Src/stm32f0xx_ll_usb.c **** }
 1560              		.loc 1 574 1 is_stmt 0 discriminator 7 view .LVU478
 1561 0020 0020     		movs	r0, #0
 1562              		@ sp needed
 1563 0022 7047     		bx	lr
 1564              	.LVL167:
 1565              	.L53:
 570:Drivers/STM32F0xx_HAL_Driver/Src/stm32f0xx_ll_usb.c ****   }
 1566              		.loc 1 570 5 is_stmt 1 view .LVU479
 1567              	.LBB53:
 570:Drivers/STM32F0xx_HAL_Driver/Src/stm32f0xx_ll_usb.c ****   }
 1568              		.loc 1 570 5 view .LVU480
 570:Drivers/STM32F0xx_HAL_Driver/Src/stm32f0xx_ll_usb.c ****   }
 1569              		.loc 1 570 5 view .LVU481
 1570 0024 0B78     		ldrb	r3, [r1]
ARM GAS  /tmp/cclsNgIg.s 			page 43


 1571 0026 9B00     		lsls	r3, r3, #2
 1572 0028 C018     		adds	r0, r0, r3
 1573              	.LVL168:
 570:Drivers/STM32F0xx_HAL_Driver/Src/stm32f0xx_ll_usb.c ****   }
 1574              		.loc 1 570 5 is_stmt 0 view .LVU482
 1575 002a 0288     		ldrh	r2, [r0]
 1576 002c 064B     		ldr	r3, .L55+8
 1577 002e 1A40     		ands	r2, r3
 1578              	.LVL169:
 570:Drivers/STM32F0xx_HAL_Driver/Src/stm32f0xx_ll_usb.c ****   }
 1579              		.loc 1 570 5 is_stmt 1 view .LVU483
 570:Drivers/STM32F0xx_HAL_Driver/Src/stm32f0xx_ll_usb.c ****   }
 1580              		.loc 1 570 5 view .LVU484
 1581 0030 8023     		movs	r3, #128
 1582 0032 5B01     		lsls	r3, r3, #5
 1583 0034 5A40     		eors	r2, r3
 1584              	.LVL170:
 570:Drivers/STM32F0xx_HAL_Driver/Src/stm32f0xx_ll_usb.c ****   }
 1585              		.loc 1 570 5 view .LVU485
 570:Drivers/STM32F0xx_HAL_Driver/Src/stm32f0xx_ll_usb.c ****   }
 1586              		.loc 1 570 5 view .LVU486
 1587 0036 034B     		ldr	r3, .L55+4
 1588 0038 1343     		orrs	r3, r2
 1589 003a 9BB2     		uxth	r3, r3
 1590 003c 0380     		strh	r3, [r0]
 1591 003e EFE7     		b	.L54
 1592              	.L56:
 1593              		.align	2
 1594              	.L55:
 1595 0040 BF8FFFFF 		.word	-28737
 1596 0044 8080FFFF 		.word	-32640
 1597 0048 8FBFFFFF 		.word	-16497
 1598              	.LBE53:
 1599              		.cfi_endproc
 1600              	.LFE48:
 1602              		.section	.text.USB_EPClearStall,"ax",%progbits
 1603              		.align	1
 1604              		.global	USB_EPClearStall
 1605              		.syntax unified
 1606              		.code	16
 1607              		.thumb_func
 1608              		.fpu softvfp
 1610              	USB_EPClearStall:
 1611              	.LVL171:
 1612              	.LFB49:
 575:Drivers/STM32F0xx_HAL_Driver/Src/stm32f0xx_ll_usb.c **** 
 576:Drivers/STM32F0xx_HAL_Driver/Src/stm32f0xx_ll_usb.c **** /**
 577:Drivers/STM32F0xx_HAL_Driver/Src/stm32f0xx_ll_usb.c ****   * @brief  USB_EPClearStall Clear a stall condition over an EP
 578:Drivers/STM32F0xx_HAL_Driver/Src/stm32f0xx_ll_usb.c ****   * @param  USBx Selected device
 579:Drivers/STM32F0xx_HAL_Driver/Src/stm32f0xx_ll_usb.c ****   * @param  ep pointer to endpoint structure
 580:Drivers/STM32F0xx_HAL_Driver/Src/stm32f0xx_ll_usb.c ****   * @retval HAL status
 581:Drivers/STM32F0xx_HAL_Driver/Src/stm32f0xx_ll_usb.c ****   */
 582:Drivers/STM32F0xx_HAL_Driver/Src/stm32f0xx_ll_usb.c **** HAL_StatusTypeDef USB_EPClearStall(USB_TypeDef *USBx, USB_EPTypeDef *ep)
 583:Drivers/STM32F0xx_HAL_Driver/Src/stm32f0xx_ll_usb.c **** {
 1613              		.loc 1 583 1 view -0
 1614              		.cfi_startproc
 1615              		@ args = 0, pretend = 0, frame = 0
ARM GAS  /tmp/cclsNgIg.s 			page 44


 1616              		@ frame_needed = 0, uses_anonymous_args = 0
 1617              		.loc 1 583 1 is_stmt 0 view .LVU488
 1618 0000 10B5     		push	{r4, lr}
 1619              	.LCFI4:
 1620              		.cfi_def_cfa_offset 8
 1621              		.cfi_offset 4, -8
 1622              		.cfi_offset 14, -4
 584:Drivers/STM32F0xx_HAL_Driver/Src/stm32f0xx_ll_usb.c ****   if (ep->doublebuffer == 0U)
 1623              		.loc 1 584 3 is_stmt 1 view .LVU489
 1624              		.loc 1 584 9 is_stmt 0 view .LVU490
 1625 0002 0B7B     		ldrb	r3, [r1, #12]
 1626              		.loc 1 584 6 view .LVU491
 1627 0004 002B     		cmp	r3, #0
 1628 0006 3AD1     		bne	.L58
 585:Drivers/STM32F0xx_HAL_Driver/Src/stm32f0xx_ll_usb.c ****   {
 586:Drivers/STM32F0xx_HAL_Driver/Src/stm32f0xx_ll_usb.c ****     if (ep->is_in != 0U)
 1629              		.loc 1 586 5 is_stmt 1 view .LVU492
 1630              		.loc 1 586 11 is_stmt 0 view .LVU493
 1631 0008 4B78     		ldrb	r3, [r1, #1]
 1632              		.loc 1 586 8 view .LVU494
 1633 000a 002B     		cmp	r3, #0
 1634 000c 1DD0     		beq	.L59
 587:Drivers/STM32F0xx_HAL_Driver/Src/stm32f0xx_ll_usb.c ****     {
 588:Drivers/STM32F0xx_HAL_Driver/Src/stm32f0xx_ll_usb.c ****       PCD_CLEAR_TX_DTOG(USBx, ep->num);
 1635              		.loc 1 588 7 is_stmt 1 view .LVU495
 1636              	.LBB54:
 1637              		.loc 1 588 7 view .LVU496
 1638              		.loc 1 588 7 view .LVU497
 1639 000e 0B78     		ldrb	r3, [r1]
 1640 0010 9B00     		lsls	r3, r3, #2
 1641 0012 C318     		adds	r3, r0, r3
 1642 0014 1A88     		ldrh	r2, [r3]
 1643              	.LVL172:
 1644              		.loc 1 588 7 view .LVU498
 1645 0016 5206     		lsls	r2, r2, #25
 1646 0018 06D5     		bpl	.L60
 1647              	.LVL173:
 1648              		.loc 1 588 7 discriminator 1 view .LVU499
 1649              	.LBB55:
 1650              		.loc 1 588 7 discriminator 1 view .LVU500
 1651              		.loc 1 588 7 discriminator 1 view .LVU501
 1652 001a 1A88     		ldrh	r2, [r3]
 1653 001c 194C     		ldr	r4, .L62
 1654 001e 1440     		ands	r4, r2
 1655              	.LVL174:
 1656              		.loc 1 588 7 discriminator 1 view .LVU502
 1657 0020 194A     		ldr	r2, .L62+4
 1658 0022 2243     		orrs	r2, r4
 1659 0024 92B2     		uxth	r2, r2
 1660 0026 1A80     		strh	r2, [r3]
 1661              	.LVL175:
 1662              	.L60:
 1663              		.loc 1 588 7 is_stmt 0 discriminator 1 view .LVU503
 1664              	.LBE55:
 1665              		.loc 1 588 7 is_stmt 1 discriminator 3 view .LVU504
 1666              	.LBE54:
 1667              		.loc 1 588 7 discriminator 3 view .LVU505
ARM GAS  /tmp/cclsNgIg.s 			page 45


 589:Drivers/STM32F0xx_HAL_Driver/Src/stm32f0xx_ll_usb.c **** 
 590:Drivers/STM32F0xx_HAL_Driver/Src/stm32f0xx_ll_usb.c ****       if (ep->type != EP_TYPE_ISOC)
 1668              		.loc 1 590 7 discriminator 3 view .LVU506
 1669              		.loc 1 590 13 is_stmt 0 discriminator 3 view .LVU507
 1670 0028 CB78     		ldrb	r3, [r1, #3]
 1671              		.loc 1 590 10 discriminator 3 view .LVU508
 1672 002a 012B     		cmp	r3, #1
 1673 002c 27D0     		beq	.L58
 591:Drivers/STM32F0xx_HAL_Driver/Src/stm32f0xx_ll_usb.c ****       {
 592:Drivers/STM32F0xx_HAL_Driver/Src/stm32f0xx_ll_usb.c ****         /* Configure NAK status for the Endpoint */
 593:Drivers/STM32F0xx_HAL_Driver/Src/stm32f0xx_ll_usb.c ****         PCD_SET_EP_TX_STATUS(USBx, ep->num, USB_EP_TX_NAK);
 1674              		.loc 1 593 9 is_stmt 1 view .LVU509
 1675              	.LBB56:
 1676              		.loc 1 593 9 view .LVU510
 1677              		.loc 1 593 9 view .LVU511
 1678 002e 0B78     		ldrb	r3, [r1]
 1679 0030 9B00     		lsls	r3, r3, #2
 1680 0032 C018     		adds	r0, r0, r3
 1681              	.LVL176:
 1682              		.loc 1 593 9 is_stmt 0 view .LVU512
 1683 0034 0388     		ldrh	r3, [r0]
 1684 0036 154A     		ldr	r2, .L62+8
 1685 0038 1340     		ands	r3, r2
 1686              	.LVL177:
 1687              		.loc 1 593 9 is_stmt 1 view .LVU513
 1688              		.loc 1 593 9 view .LVU514
 1689              		.loc 1 593 9 view .LVU515
 1690 003a 2022     		movs	r2, #32
 1691 003c 5340     		eors	r3, r2
 1692              	.LVL178:
 1693              		.loc 1 593 9 is_stmt 0 view .LVU516
 1694 003e 9BB2     		uxth	r3, r3
 1695              	.LVL179:
 1696              		.loc 1 593 9 is_stmt 1 view .LVU517
 1697 0040 134A     		ldr	r2, .L62+12
 1698 0042 1343     		orrs	r3, r2
 1699              	.LVL180:
 1700              		.loc 1 593 9 is_stmt 0 view .LVU518
 1701 0044 9BB2     		uxth	r3, r3
 1702 0046 0380     		strh	r3, [r0]
 1703 0048 19E0     		b	.L58
 1704              	.LVL181:
 1705              	.L59:
 1706              		.loc 1 593 9 view .LVU519
 1707              	.LBE56:
 594:Drivers/STM32F0xx_HAL_Driver/Src/stm32f0xx_ll_usb.c ****       }
 595:Drivers/STM32F0xx_HAL_Driver/Src/stm32f0xx_ll_usb.c ****     }
 596:Drivers/STM32F0xx_HAL_Driver/Src/stm32f0xx_ll_usb.c ****     else
 597:Drivers/STM32F0xx_HAL_Driver/Src/stm32f0xx_ll_usb.c ****     {
 598:Drivers/STM32F0xx_HAL_Driver/Src/stm32f0xx_ll_usb.c ****       PCD_CLEAR_RX_DTOG(USBx, ep->num);
 1708              		.loc 1 598 7 is_stmt 1 view .LVU520
 1709              	.LBB57:
 1710              		.loc 1 598 7 view .LVU521
 1711              		.loc 1 598 7 view .LVU522
 1712 004a 0B78     		ldrb	r3, [r1]
 1713 004c 9B00     		lsls	r3, r3, #2
 1714 004e C318     		adds	r3, r0, r3
ARM GAS  /tmp/cclsNgIg.s 			page 46


 1715 0050 1A88     		ldrh	r2, [r3]
 1716              	.LVL182:
 1717              		.loc 1 598 7 view .LVU523
 1718 0052 5204     		lsls	r2, r2, #17
 1719 0054 06D5     		bpl	.L61
 1720              	.LVL183:
 1721              		.loc 1 598 7 discriminator 1 view .LVU524
 1722              	.LBB58:
 1723              		.loc 1 598 7 discriminator 1 view .LVU525
 1724              		.loc 1 598 7 discriminator 1 view .LVU526
 1725 0056 1A88     		ldrh	r2, [r3]
 1726 0058 0A4C     		ldr	r4, .L62
 1727 005a 1440     		ands	r4, r2
 1728              	.LVL184:
 1729              		.loc 1 598 7 discriminator 1 view .LVU527
 1730 005c 0D4A     		ldr	r2, .L62+16
 1731 005e 2243     		orrs	r2, r4
 1732 0060 92B2     		uxth	r2, r2
 1733 0062 1A80     		strh	r2, [r3]
 1734              	.LVL185:
 1735              	.L61:
 1736              		.loc 1 598 7 is_stmt 0 discriminator 1 view .LVU528
 1737              	.LBE58:
 1738              		.loc 1 598 7 is_stmt 1 discriminator 3 view .LVU529
 1739              	.LBE57:
 1740              		.loc 1 598 7 discriminator 3 view .LVU530
 599:Drivers/STM32F0xx_HAL_Driver/Src/stm32f0xx_ll_usb.c **** 
 600:Drivers/STM32F0xx_HAL_Driver/Src/stm32f0xx_ll_usb.c ****       /* Configure VALID status for the Endpoint */
 601:Drivers/STM32F0xx_HAL_Driver/Src/stm32f0xx_ll_usb.c ****       PCD_SET_EP_RX_STATUS(USBx, ep->num, USB_EP_RX_VALID);
 1741              		.loc 1 601 7 discriminator 3 view .LVU531
 1742              	.LBB59:
 1743              		.loc 1 601 7 discriminator 3 view .LVU532
 1744              		.loc 1 601 7 discriminator 3 view .LVU533
 1745 0064 0B78     		ldrb	r3, [r1]
 1746 0066 9B00     		lsls	r3, r3, #2
 1747 0068 C018     		adds	r0, r0, r3
 1748              	.LVL186:
 1749              		.loc 1 601 7 is_stmt 0 discriminator 3 view .LVU534
 1750 006a 0288     		ldrh	r2, [r0]
 1751 006c 0A4B     		ldr	r3, .L62+20
 1752 006e 1A40     		ands	r2, r3
 1753              	.LVL187:
 1754              		.loc 1 601 7 is_stmt 1 discriminator 3 view .LVU535
 1755              		.loc 1 601 7 discriminator 3 view .LVU536
 1756              		.loc 1 601 7 discriminator 3 view .LVU537
 1757              		.loc 1 601 7 discriminator 3 view .LVU538
 1758 0070 C023     		movs	r3, #192
 1759 0072 9B01     		lsls	r3, r3, #6
 1760 0074 5A40     		eors	r2, r3
 1761              	.LVL188:
 1762              		.loc 1 601 7 discriminator 3 view .LVU539
 1763 0076 064B     		ldr	r3, .L62+12
 1764 0078 1343     		orrs	r3, r2
 1765 007a 9BB2     		uxth	r3, r3
 1766 007c 0380     		strh	r3, [r0]
 1767              	.LVL189:
 1768              	.L58:
ARM GAS  /tmp/cclsNgIg.s 			page 47


 1769              		.loc 1 601 7 is_stmt 0 discriminator 3 view .LVU540
 1770              	.LBE59:
 1771              		.loc 1 601 7 is_stmt 1 discriminator 7 view .LVU541
 602:Drivers/STM32F0xx_HAL_Driver/Src/stm32f0xx_ll_usb.c ****     }
 603:Drivers/STM32F0xx_HAL_Driver/Src/stm32f0xx_ll_usb.c ****   }
 604:Drivers/STM32F0xx_HAL_Driver/Src/stm32f0xx_ll_usb.c **** 
 605:Drivers/STM32F0xx_HAL_Driver/Src/stm32f0xx_ll_usb.c ****   return HAL_OK;
 1772              		.loc 1 605 3 discriminator 7 view .LVU542
 606:Drivers/STM32F0xx_HAL_Driver/Src/stm32f0xx_ll_usb.c **** }
 1773              		.loc 1 606 1 is_stmt 0 discriminator 7 view .LVU543
 1774 007e 0020     		movs	r0, #0
 1775              		@ sp needed
 1776 0080 10BD     		pop	{r4, pc}
 1777              	.L63:
 1778 0082 C046     		.align	2
 1779              	.L62:
 1780 0084 8F8FFFFF 		.word	-28785
 1781 0088 C080FFFF 		.word	-32576
 1782 008c BF8FFFFF 		.word	-28737
 1783 0090 8080FFFF 		.word	-32640
 1784 0094 80C0FFFF 		.word	-16256
 1785 0098 8FBFFFFF 		.word	-16497
 1786              		.cfi_endproc
 1787              	.LFE49:
 1789              		.section	.text.USB_StopDevice,"ax",%progbits
 1790              		.align	1
 1791              		.global	USB_StopDevice
 1792              		.syntax unified
 1793              		.code	16
 1794              		.thumb_func
 1795              		.fpu softvfp
 1797              	USB_StopDevice:
 1798              	.LVL190:
 1799              	.LFB50:
 607:Drivers/STM32F0xx_HAL_Driver/Src/stm32f0xx_ll_usb.c **** 
 608:Drivers/STM32F0xx_HAL_Driver/Src/stm32f0xx_ll_usb.c **** /**
 609:Drivers/STM32F0xx_HAL_Driver/Src/stm32f0xx_ll_usb.c ****   * @brief  USB_StopDevice Stop the usb device mode
 610:Drivers/STM32F0xx_HAL_Driver/Src/stm32f0xx_ll_usb.c ****   * @param  USBx Selected device
 611:Drivers/STM32F0xx_HAL_Driver/Src/stm32f0xx_ll_usb.c ****   * @retval HAL status
 612:Drivers/STM32F0xx_HAL_Driver/Src/stm32f0xx_ll_usb.c ****   */
 613:Drivers/STM32F0xx_HAL_Driver/Src/stm32f0xx_ll_usb.c **** HAL_StatusTypeDef USB_StopDevice(USB_TypeDef *USBx)
 614:Drivers/STM32F0xx_HAL_Driver/Src/stm32f0xx_ll_usb.c **** {
 1800              		.loc 1 614 1 is_stmt 1 view -0
 1801              		.cfi_startproc
 1802              		@ args = 0, pretend = 0, frame = 0
 1803              		@ frame_needed = 0, uses_anonymous_args = 0
 1804              		@ link register save eliminated.
 615:Drivers/STM32F0xx_HAL_Driver/Src/stm32f0xx_ll_usb.c ****   /* disable all interrupts and force USB reset */
 616:Drivers/STM32F0xx_HAL_Driver/Src/stm32f0xx_ll_usb.c ****   USBx->CNTR = (uint16_t)USB_CNTR_FRES;
 1805              		.loc 1 616 3 view .LVU545
 1806              		.loc 1 616 14 is_stmt 0 view .LVU546
 1807 0000 4023     		movs	r3, #64
 1808 0002 0122     		movs	r2, #1
 1809 0004 C252     		strh	r2, [r0, r3]
 617:Drivers/STM32F0xx_HAL_Driver/Src/stm32f0xx_ll_usb.c **** 
 618:Drivers/STM32F0xx_HAL_Driver/Src/stm32f0xx_ll_usb.c ****   /* clear interrupt status register */
 619:Drivers/STM32F0xx_HAL_Driver/Src/stm32f0xx_ll_usb.c ****   USBx->ISTR = 0U;
ARM GAS  /tmp/cclsNgIg.s 			page 48


 1810              		.loc 1 619 3 is_stmt 1 view .LVU547
 1811              		.loc 1 619 14 is_stmt 0 view .LVU548
 1812 0006 4332     		adds	r2, r2, #67
 1813 0008 0021     		movs	r1, #0
 1814 000a 8152     		strh	r1, [r0, r2]
 620:Drivers/STM32F0xx_HAL_Driver/Src/stm32f0xx_ll_usb.c **** 
 621:Drivers/STM32F0xx_HAL_Driver/Src/stm32f0xx_ll_usb.c ****   /* switch-off device */
 622:Drivers/STM32F0xx_HAL_Driver/Src/stm32f0xx_ll_usb.c ****   USBx->CNTR = (uint16_t)(USB_CNTR_FRES | USB_CNTR_PDWN);
 1815              		.loc 1 622 3 is_stmt 1 view .LVU549
 1816              		.loc 1 622 14 is_stmt 0 view .LVU550
 1817 000c 413A     		subs	r2, r2, #65
 1818 000e C252     		strh	r2, [r0, r3]
 623:Drivers/STM32F0xx_HAL_Driver/Src/stm32f0xx_ll_usb.c **** 
 624:Drivers/STM32F0xx_HAL_Driver/Src/stm32f0xx_ll_usb.c ****   return HAL_OK;
 1819              		.loc 1 624 3 is_stmt 1 view .LVU551
 625:Drivers/STM32F0xx_HAL_Driver/Src/stm32f0xx_ll_usb.c **** }
 1820              		.loc 1 625 1 is_stmt 0 view .LVU552
 1821 0010 0020     		movs	r0, #0
 1822              	.LVL191:
 1823              		.loc 1 625 1 view .LVU553
 1824              		@ sp needed
 1825 0012 7047     		bx	lr
 1826              		.cfi_endproc
 1827              	.LFE50:
 1829              		.section	.text.USB_SetDevAddress,"ax",%progbits
 1830              		.align	1
 1831              		.global	USB_SetDevAddress
 1832              		.syntax unified
 1833              		.code	16
 1834              		.thumb_func
 1835              		.fpu softvfp
 1837              	USB_SetDevAddress:
 1838              	.LVL192:
 1839              	.LFB51:
 626:Drivers/STM32F0xx_HAL_Driver/Src/stm32f0xx_ll_usb.c **** 
 627:Drivers/STM32F0xx_HAL_Driver/Src/stm32f0xx_ll_usb.c **** /**
 628:Drivers/STM32F0xx_HAL_Driver/Src/stm32f0xx_ll_usb.c ****   * @brief  USB_SetDevAddress Stop the usb device mode
 629:Drivers/STM32F0xx_HAL_Driver/Src/stm32f0xx_ll_usb.c ****   * @param  USBx Selected device
 630:Drivers/STM32F0xx_HAL_Driver/Src/stm32f0xx_ll_usb.c ****   * @param  address new device address to be assigned
 631:Drivers/STM32F0xx_HAL_Driver/Src/stm32f0xx_ll_usb.c ****   *          This parameter can be a value from 0 to 255
 632:Drivers/STM32F0xx_HAL_Driver/Src/stm32f0xx_ll_usb.c ****   * @retval HAL status
 633:Drivers/STM32F0xx_HAL_Driver/Src/stm32f0xx_ll_usb.c ****   */
 634:Drivers/STM32F0xx_HAL_Driver/Src/stm32f0xx_ll_usb.c **** HAL_StatusTypeDef  USB_SetDevAddress(USB_TypeDef *USBx, uint8_t address)
 635:Drivers/STM32F0xx_HAL_Driver/Src/stm32f0xx_ll_usb.c **** {
 1840              		.loc 1 635 1 is_stmt 1 view -0
 1841              		.cfi_startproc
 1842              		@ args = 0, pretend = 0, frame = 0
 1843              		@ frame_needed = 0, uses_anonymous_args = 0
 1844              		@ link register save eliminated.
 636:Drivers/STM32F0xx_HAL_Driver/Src/stm32f0xx_ll_usb.c ****   if (address == 0U)
 1845              		.loc 1 636 3 view .LVU555
 1846              		.loc 1 636 6 is_stmt 0 view .LVU556
 1847 0000 0029     		cmp	r1, #0
 1848 0002 02D1     		bne	.L66
 637:Drivers/STM32F0xx_HAL_Driver/Src/stm32f0xx_ll_usb.c ****   {
 638:Drivers/STM32F0xx_HAL_Driver/Src/stm32f0xx_ll_usb.c ****     /* set device address and enable function */
 639:Drivers/STM32F0xx_HAL_Driver/Src/stm32f0xx_ll_usb.c ****     USBx->DADDR = (uint16_t)USB_DADDR_EF;
ARM GAS  /tmp/cclsNgIg.s 			page 49


 1849              		.loc 1 639 5 is_stmt 1 view .LVU557
 1850              		.loc 1 639 17 is_stmt 0 view .LVU558
 1851 0004 4C23     		movs	r3, #76
 1852 0006 8022     		movs	r2, #128
 1853 0008 C252     		strh	r2, [r0, r3]
 1854              	.L66:
 640:Drivers/STM32F0xx_HAL_Driver/Src/stm32f0xx_ll_usb.c ****   }
 641:Drivers/STM32F0xx_HAL_Driver/Src/stm32f0xx_ll_usb.c **** 
 642:Drivers/STM32F0xx_HAL_Driver/Src/stm32f0xx_ll_usb.c ****   return HAL_OK;
 1855              		.loc 1 642 3 is_stmt 1 view .LVU559
 643:Drivers/STM32F0xx_HAL_Driver/Src/stm32f0xx_ll_usb.c **** }
 1856              		.loc 1 643 1 is_stmt 0 view .LVU560
 1857 000a 0020     		movs	r0, #0
 1858              	.LVL193:
 1859              		.loc 1 643 1 view .LVU561
 1860              		@ sp needed
 1861 000c 7047     		bx	lr
 1862              		.cfi_endproc
 1863              	.LFE51:
 1865              		.section	.text.USB_DevConnect,"ax",%progbits
 1866              		.align	1
 1867              		.global	USB_DevConnect
 1868              		.syntax unified
 1869              		.code	16
 1870              		.thumb_func
 1871              		.fpu softvfp
 1873              	USB_DevConnect:
 1874              	.LVL194:
 1875              	.LFB52:
 644:Drivers/STM32F0xx_HAL_Driver/Src/stm32f0xx_ll_usb.c **** 
 645:Drivers/STM32F0xx_HAL_Driver/Src/stm32f0xx_ll_usb.c **** /**
 646:Drivers/STM32F0xx_HAL_Driver/Src/stm32f0xx_ll_usb.c ****   * @brief  USB_DevConnect Connect the USB device by enabling the pull-up/pull-down
 647:Drivers/STM32F0xx_HAL_Driver/Src/stm32f0xx_ll_usb.c ****   * @param  USBx Selected device
 648:Drivers/STM32F0xx_HAL_Driver/Src/stm32f0xx_ll_usb.c ****   * @retval HAL status
 649:Drivers/STM32F0xx_HAL_Driver/Src/stm32f0xx_ll_usb.c ****   */
 650:Drivers/STM32F0xx_HAL_Driver/Src/stm32f0xx_ll_usb.c **** HAL_StatusTypeDef  USB_DevConnect(USB_TypeDef *USBx)
 651:Drivers/STM32F0xx_HAL_Driver/Src/stm32f0xx_ll_usb.c **** {
 1876              		.loc 1 651 1 is_stmt 1 view -0
 1877              		.cfi_startproc
 1878              		@ args = 0, pretend = 0, frame = 0
 1879              		@ frame_needed = 0, uses_anonymous_args = 0
 1880              		@ link register save eliminated.
 652:Drivers/STM32F0xx_HAL_Driver/Src/stm32f0xx_ll_usb.c ****   /* Enabling DP Pull-UP bit to Connect internal PU resistor on USB DP line */
 653:Drivers/STM32F0xx_HAL_Driver/Src/stm32f0xx_ll_usb.c ****   USBx->BCDR |= (uint16_t)USB_BCDR_DPPU;
 1881              		.loc 1 653 3 view .LVU563
 1882              		.loc 1 653 14 is_stmt 0 view .LVU564
 1883 0000 5822     		movs	r2, #88
 1884 0002 835A     		ldrh	r3, [r0, r2]
 1885 0004 0249     		ldr	r1, .L68
 1886 0006 0B43     		orrs	r3, r1
 1887 0008 9BB2     		uxth	r3, r3
 1888 000a 8352     		strh	r3, [r0, r2]
 654:Drivers/STM32F0xx_HAL_Driver/Src/stm32f0xx_ll_usb.c **** 
 655:Drivers/STM32F0xx_HAL_Driver/Src/stm32f0xx_ll_usb.c ****   return HAL_OK;
 1889              		.loc 1 655 3 is_stmt 1 view .LVU565
 656:Drivers/STM32F0xx_HAL_Driver/Src/stm32f0xx_ll_usb.c **** }
 1890              		.loc 1 656 1 is_stmt 0 view .LVU566
ARM GAS  /tmp/cclsNgIg.s 			page 50


 1891 000c 0020     		movs	r0, #0
 1892              	.LVL195:
 1893              		.loc 1 656 1 view .LVU567
 1894              		@ sp needed
 1895 000e 7047     		bx	lr
 1896              	.L69:
 1897              		.align	2
 1898              	.L68:
 1899 0010 0080FFFF 		.word	-32768
 1900              		.cfi_endproc
 1901              	.LFE52:
 1903              		.section	.text.USB_DevDisconnect,"ax",%progbits
 1904              		.align	1
 1905              		.global	USB_DevDisconnect
 1906              		.syntax unified
 1907              		.code	16
 1908              		.thumb_func
 1909              		.fpu softvfp
 1911              	USB_DevDisconnect:
 1912              	.LVL196:
 1913              	.LFB53:
 657:Drivers/STM32F0xx_HAL_Driver/Src/stm32f0xx_ll_usb.c **** 
 658:Drivers/STM32F0xx_HAL_Driver/Src/stm32f0xx_ll_usb.c **** /**
 659:Drivers/STM32F0xx_HAL_Driver/Src/stm32f0xx_ll_usb.c ****   * @brief  USB_DevDisconnect Disconnect the USB device by disabling the pull-up/pull-down
 660:Drivers/STM32F0xx_HAL_Driver/Src/stm32f0xx_ll_usb.c ****   * @param  USBx Selected device
 661:Drivers/STM32F0xx_HAL_Driver/Src/stm32f0xx_ll_usb.c ****   * @retval HAL status
 662:Drivers/STM32F0xx_HAL_Driver/Src/stm32f0xx_ll_usb.c ****   */
 663:Drivers/STM32F0xx_HAL_Driver/Src/stm32f0xx_ll_usb.c **** HAL_StatusTypeDef  USB_DevDisconnect(USB_TypeDef *USBx)
 664:Drivers/STM32F0xx_HAL_Driver/Src/stm32f0xx_ll_usb.c **** {
 1914              		.loc 1 664 1 is_stmt 1 view -0
 1915              		.cfi_startproc
 1916              		@ args = 0, pretend = 0, frame = 0
 1917              		@ frame_needed = 0, uses_anonymous_args = 0
 1918              		@ link register save eliminated.
 665:Drivers/STM32F0xx_HAL_Driver/Src/stm32f0xx_ll_usb.c ****   /* Disable DP Pull-Up bit to disconnect the Internal PU resistor on USB DP line */
 666:Drivers/STM32F0xx_HAL_Driver/Src/stm32f0xx_ll_usb.c ****   USBx->BCDR &= (uint16_t)(~(USB_BCDR_DPPU));
 1919              		.loc 1 666 3 view .LVU569
 1920              		.loc 1 666 14 is_stmt 0 view .LVU570
 1921 0000 5822     		movs	r2, #88
 1922 0002 835A     		ldrh	r3, [r0, r2]
 1923 0004 5B04     		lsls	r3, r3, #17
 1924 0006 5B0C     		lsrs	r3, r3, #17
 1925 0008 8352     		strh	r3, [r0, r2]
 667:Drivers/STM32F0xx_HAL_Driver/Src/stm32f0xx_ll_usb.c **** 
 668:Drivers/STM32F0xx_HAL_Driver/Src/stm32f0xx_ll_usb.c ****   return HAL_OK;
 1926              		.loc 1 668 3 is_stmt 1 view .LVU571
 669:Drivers/STM32F0xx_HAL_Driver/Src/stm32f0xx_ll_usb.c **** }
 1927              		.loc 1 669 1 is_stmt 0 view .LVU572
 1928 000a 0020     		movs	r0, #0
 1929              	.LVL197:
 1930              		.loc 1 669 1 view .LVU573
 1931              		@ sp needed
 1932 000c 7047     		bx	lr
 1933              		.cfi_endproc
 1934              	.LFE53:
 1936              		.section	.text.USB_ReadInterrupts,"ax",%progbits
 1937              		.align	1
ARM GAS  /tmp/cclsNgIg.s 			page 51


 1938              		.global	USB_ReadInterrupts
 1939              		.syntax unified
 1940              		.code	16
 1941              		.thumb_func
 1942              		.fpu softvfp
 1944              	USB_ReadInterrupts:
 1945              	.LVL198:
 1946              	.LFB54:
 670:Drivers/STM32F0xx_HAL_Driver/Src/stm32f0xx_ll_usb.c **** 
 671:Drivers/STM32F0xx_HAL_Driver/Src/stm32f0xx_ll_usb.c **** /**
 672:Drivers/STM32F0xx_HAL_Driver/Src/stm32f0xx_ll_usb.c ****   * @brief  USB_ReadInterrupts return the global USB interrupt status
 673:Drivers/STM32F0xx_HAL_Driver/Src/stm32f0xx_ll_usb.c ****   * @param  USBx Selected device
 674:Drivers/STM32F0xx_HAL_Driver/Src/stm32f0xx_ll_usb.c ****   * @retval HAL status
 675:Drivers/STM32F0xx_HAL_Driver/Src/stm32f0xx_ll_usb.c ****   */
 676:Drivers/STM32F0xx_HAL_Driver/Src/stm32f0xx_ll_usb.c **** uint32_t  USB_ReadInterrupts(USB_TypeDef *USBx)
 677:Drivers/STM32F0xx_HAL_Driver/Src/stm32f0xx_ll_usb.c **** {
 1947              		.loc 1 677 1 is_stmt 1 view -0
 1948              		.cfi_startproc
 1949              		@ args = 0, pretend = 0, frame = 0
 1950              		@ frame_needed = 0, uses_anonymous_args = 0
 1951              		@ link register save eliminated.
 678:Drivers/STM32F0xx_HAL_Driver/Src/stm32f0xx_ll_usb.c ****   uint32_t tmpreg;
 1952              		.loc 1 678 3 view .LVU575
 679:Drivers/STM32F0xx_HAL_Driver/Src/stm32f0xx_ll_usb.c **** 
 680:Drivers/STM32F0xx_HAL_Driver/Src/stm32f0xx_ll_usb.c ****   tmpreg = USBx->ISTR;
 1953              		.loc 1 680 3 view .LVU576
 1954              		.loc 1 680 16 is_stmt 0 view .LVU577
 1955 0000 4423     		movs	r3, #68
 1956 0002 C05A     		ldrh	r0, [r0, r3]
 1957              	.LVL199:
 1958              		.loc 1 680 16 view .LVU578
 1959 0004 80B2     		uxth	r0, r0
 1960              	.LVL200:
 681:Drivers/STM32F0xx_HAL_Driver/Src/stm32f0xx_ll_usb.c ****   return tmpreg;
 1961              		.loc 1 681 3 is_stmt 1 view .LVU579
 682:Drivers/STM32F0xx_HAL_Driver/Src/stm32f0xx_ll_usb.c **** }
 1962              		.loc 1 682 1 is_stmt 0 view .LVU580
 1963              		@ sp needed
 1964 0006 7047     		bx	lr
 1965              		.cfi_endproc
 1966              	.LFE54:
 1968              		.section	.text.USB_ActivateRemoteWakeup,"ax",%progbits
 1969              		.align	1
 1970              		.global	USB_ActivateRemoteWakeup
 1971              		.syntax unified
 1972              		.code	16
 1973              		.thumb_func
 1974              		.fpu softvfp
 1976              	USB_ActivateRemoteWakeup:
 1977              	.LVL201:
 1978              	.LFB55:
 683:Drivers/STM32F0xx_HAL_Driver/Src/stm32f0xx_ll_usb.c **** 
 684:Drivers/STM32F0xx_HAL_Driver/Src/stm32f0xx_ll_usb.c **** /**
 685:Drivers/STM32F0xx_HAL_Driver/Src/stm32f0xx_ll_usb.c ****   * @brief  USB_ActivateRemoteWakeup : active remote wakeup signalling
 686:Drivers/STM32F0xx_HAL_Driver/Src/stm32f0xx_ll_usb.c ****   * @param  USBx Selected device
 687:Drivers/STM32F0xx_HAL_Driver/Src/stm32f0xx_ll_usb.c ****   * @retval HAL status
 688:Drivers/STM32F0xx_HAL_Driver/Src/stm32f0xx_ll_usb.c ****   */
ARM GAS  /tmp/cclsNgIg.s 			page 52


 689:Drivers/STM32F0xx_HAL_Driver/Src/stm32f0xx_ll_usb.c **** HAL_StatusTypeDef USB_ActivateRemoteWakeup(USB_TypeDef *USBx)
 690:Drivers/STM32F0xx_HAL_Driver/Src/stm32f0xx_ll_usb.c **** {
 1979              		.loc 1 690 1 is_stmt 1 view -0
 1980              		.cfi_startproc
 1981              		@ args = 0, pretend = 0, frame = 0
 1982              		@ frame_needed = 0, uses_anonymous_args = 0
 1983              		@ link register save eliminated.
 691:Drivers/STM32F0xx_HAL_Driver/Src/stm32f0xx_ll_usb.c ****   USBx->CNTR |= (uint16_t)USB_CNTR_RESUME;
 1984              		.loc 1 691 3 view .LVU582
 1985              		.loc 1 691 14 is_stmt 0 view .LVU583
 1986 0000 4022     		movs	r2, #64
 1987 0002 835A     		ldrh	r3, [r0, r2]
 1988 0004 1021     		movs	r1, #16
 1989 0006 0B43     		orrs	r3, r1
 1990 0008 9BB2     		uxth	r3, r3
 1991 000a 8352     		strh	r3, [r0, r2]
 692:Drivers/STM32F0xx_HAL_Driver/Src/stm32f0xx_ll_usb.c **** 
 693:Drivers/STM32F0xx_HAL_Driver/Src/stm32f0xx_ll_usb.c ****   return HAL_OK;
 1992              		.loc 1 693 3 is_stmt 1 view .LVU584
 694:Drivers/STM32F0xx_HAL_Driver/Src/stm32f0xx_ll_usb.c **** }
 1993              		.loc 1 694 1 is_stmt 0 view .LVU585
 1994 000c 0020     		movs	r0, #0
 1995              	.LVL202:
 1996              		.loc 1 694 1 view .LVU586
 1997              		@ sp needed
 1998 000e 7047     		bx	lr
 1999              		.cfi_endproc
 2000              	.LFE55:
 2002              		.section	.text.USB_DeActivateRemoteWakeup,"ax",%progbits
 2003              		.align	1
 2004              		.global	USB_DeActivateRemoteWakeup
 2005              		.syntax unified
 2006              		.code	16
 2007              		.thumb_func
 2008              		.fpu softvfp
 2010              	USB_DeActivateRemoteWakeup:
 2011              	.LVL203:
 2012              	.LFB56:
 695:Drivers/STM32F0xx_HAL_Driver/Src/stm32f0xx_ll_usb.c **** 
 696:Drivers/STM32F0xx_HAL_Driver/Src/stm32f0xx_ll_usb.c **** /**
 697:Drivers/STM32F0xx_HAL_Driver/Src/stm32f0xx_ll_usb.c ****   * @brief  USB_DeActivateRemoteWakeup de-active remote wakeup signalling
 698:Drivers/STM32F0xx_HAL_Driver/Src/stm32f0xx_ll_usb.c ****   * @param  USBx Selected device
 699:Drivers/STM32F0xx_HAL_Driver/Src/stm32f0xx_ll_usb.c ****   * @retval HAL status
 700:Drivers/STM32F0xx_HAL_Driver/Src/stm32f0xx_ll_usb.c ****   */
 701:Drivers/STM32F0xx_HAL_Driver/Src/stm32f0xx_ll_usb.c **** HAL_StatusTypeDef USB_DeActivateRemoteWakeup(USB_TypeDef *USBx)
 702:Drivers/STM32F0xx_HAL_Driver/Src/stm32f0xx_ll_usb.c **** {
 2013              		.loc 1 702 1 is_stmt 1 view -0
 2014              		.cfi_startproc
 2015              		@ args = 0, pretend = 0, frame = 0
 2016              		@ frame_needed = 0, uses_anonymous_args = 0
 2017              		@ link register save eliminated.
 703:Drivers/STM32F0xx_HAL_Driver/Src/stm32f0xx_ll_usb.c ****   USBx->CNTR &= (uint16_t)(~USB_CNTR_RESUME);
 2018              		.loc 1 703 3 view .LVU588
 2019              		.loc 1 703 14 is_stmt 0 view .LVU589
 2020 0000 4022     		movs	r2, #64
 2021 0002 835A     		ldrh	r3, [r0, r2]
 2022 0004 1021     		movs	r1, #16
ARM GAS  /tmp/cclsNgIg.s 			page 53


 2023 0006 8B43     		bics	r3, r1
 2024 0008 8352     		strh	r3, [r0, r2]
 704:Drivers/STM32F0xx_HAL_Driver/Src/stm32f0xx_ll_usb.c **** 
 705:Drivers/STM32F0xx_HAL_Driver/Src/stm32f0xx_ll_usb.c ****   return HAL_OK;
 2025              		.loc 1 705 3 is_stmt 1 view .LVU590
 706:Drivers/STM32F0xx_HAL_Driver/Src/stm32f0xx_ll_usb.c **** }
 2026              		.loc 1 706 1 is_stmt 0 view .LVU591
 2027 000a 0020     		movs	r0, #0
 2028              	.LVL204:
 2029              		.loc 1 706 1 view .LVU592
 2030              		@ sp needed
 2031 000c 7047     		bx	lr
 2032              		.cfi_endproc
 2033              	.LFE56:
 2035              		.section	.text.USB_WritePMA,"ax",%progbits
 2036              		.align	1
 2037              		.global	USB_WritePMA
 2038              		.syntax unified
 2039              		.code	16
 2040              		.thumb_func
 2041              		.fpu softvfp
 2043              	USB_WritePMA:
 2044              	.LVL205:
 2045              	.LFB57:
 707:Drivers/STM32F0xx_HAL_Driver/Src/stm32f0xx_ll_usb.c **** 
 708:Drivers/STM32F0xx_HAL_Driver/Src/stm32f0xx_ll_usb.c **** /**
 709:Drivers/STM32F0xx_HAL_Driver/Src/stm32f0xx_ll_usb.c ****   * @brief Copy a buffer from user memory area to packet memory area (PMA)
 710:Drivers/STM32F0xx_HAL_Driver/Src/stm32f0xx_ll_usb.c ****   * @param   USBx USB peripheral instance register address.
 711:Drivers/STM32F0xx_HAL_Driver/Src/stm32f0xx_ll_usb.c ****   * @param   pbUsrBuf pointer to user memory area.
 712:Drivers/STM32F0xx_HAL_Driver/Src/stm32f0xx_ll_usb.c ****   * @param   wPMABufAddr address into PMA.
 713:Drivers/STM32F0xx_HAL_Driver/Src/stm32f0xx_ll_usb.c ****   * @param   wNBytes no. of bytes to be copied.
 714:Drivers/STM32F0xx_HAL_Driver/Src/stm32f0xx_ll_usb.c ****   * @retval None
 715:Drivers/STM32F0xx_HAL_Driver/Src/stm32f0xx_ll_usb.c ****   */
 716:Drivers/STM32F0xx_HAL_Driver/Src/stm32f0xx_ll_usb.c **** void USB_WritePMA(USB_TypeDef *USBx, uint8_t *pbUsrBuf, uint16_t wPMABufAddr, uint16_t wNBytes)
 717:Drivers/STM32F0xx_HAL_Driver/Src/stm32f0xx_ll_usb.c **** {
 2046              		.loc 1 717 1 is_stmt 1 view -0
 2047              		.cfi_startproc
 2048              		@ args = 0, pretend = 0, frame = 0
 2049              		@ frame_needed = 0, uses_anonymous_args = 0
 2050              		.loc 1 717 1 is_stmt 0 view .LVU594
 2051 0000 10B5     		push	{r4, lr}
 2052              	.LCFI5:
 2053              		.cfi_def_cfa_offset 8
 2054              		.cfi_offset 4, -8
 2055              		.cfi_offset 14, -4
 718:Drivers/STM32F0xx_HAL_Driver/Src/stm32f0xx_ll_usb.c ****   uint32_t n = ((uint32_t)wNBytes + 1U) >> 1;
 2056              		.loc 1 718 3 is_stmt 1 view .LVU595
 2057              		.loc 1 718 35 is_stmt 0 view .LVU596
 2058 0002 0133     		adds	r3, r3, #1
 2059              	.LVL206:
 2060              		.loc 1 718 12 view .LVU597
 2061 0004 5B08     		lsrs	r3, r3, #1
 2062              	.LVL207:
 719:Drivers/STM32F0xx_HAL_Driver/Src/stm32f0xx_ll_usb.c ****   uint32_t BaseAddr = (uint32_t)USBx;
 2063              		.loc 1 719 3 is_stmt 1 view .LVU598
 720:Drivers/STM32F0xx_HAL_Driver/Src/stm32f0xx_ll_usb.c ****   uint32_t i, temp1, temp2;
 2064              		.loc 1 720 3 view .LVU599
ARM GAS  /tmp/cclsNgIg.s 			page 54


 721:Drivers/STM32F0xx_HAL_Driver/Src/stm32f0xx_ll_usb.c ****   __IO uint16_t *pdwVal;
 2065              		.loc 1 721 3 view .LVU600
 722:Drivers/STM32F0xx_HAL_Driver/Src/stm32f0xx_ll_usb.c ****   uint8_t *pBuf = pbUsrBuf;
 2066              		.loc 1 722 3 view .LVU601
 723:Drivers/STM32F0xx_HAL_Driver/Src/stm32f0xx_ll_usb.c **** 
 724:Drivers/STM32F0xx_HAL_Driver/Src/stm32f0xx_ll_usb.c ****   pdwVal = (__IO uint16_t *)(BaseAddr + 0x400U + ((uint32_t)wPMABufAddr * PMA_ACCESS));
 2067              		.loc 1 724 3 view .LVU602
 2068              		.loc 1 724 48 is_stmt 0 view .LVU603
 2069 0006 1018     		adds	r0, r2, r0
 2070              	.LVL208:
 2071              		.loc 1 724 48 view .LVU604
 2072 0008 8022     		movs	r2, #128
 2073              	.LVL209:
 2074              		.loc 1 724 48 view .LVU605
 2075 000a D200     		lsls	r2, r2, #3
 2076 000c 9446     		mov	ip, r2
 2077 000e 6044     		add	r0, r0, ip
 2078              	.LVL210:
 725:Drivers/STM32F0xx_HAL_Driver/Src/stm32f0xx_ll_usb.c **** 
 726:Drivers/STM32F0xx_HAL_Driver/Src/stm32f0xx_ll_usb.c ****   for (i = n; i != 0U; i--)
 2079              		.loc 1 726 3 is_stmt 1 view .LVU606
 2080              	.L75:
 2081              		.loc 1 726 15 discriminator 1 view .LVU607
 2082              		.loc 1 726 3 is_stmt 0 discriminator 1 view .LVU608
 2083 0010 002B     		cmp	r3, #0
 2084 0012 08D0     		beq	.L77
 727:Drivers/STM32F0xx_HAL_Driver/Src/stm32f0xx_ll_usb.c ****   {
 728:Drivers/STM32F0xx_HAL_Driver/Src/stm32f0xx_ll_usb.c ****     temp1 = *pBuf;
 2085              		.loc 1 728 5 is_stmt 1 discriminator 3 view .LVU609
 2086              		.loc 1 728 13 is_stmt 0 discriminator 3 view .LVU610
 2087 0014 0C78     		ldrb	r4, [r1]
 2088              	.LVL211:
 729:Drivers/STM32F0xx_HAL_Driver/Src/stm32f0xx_ll_usb.c ****     pBuf++;
 2089              		.loc 1 729 5 is_stmt 1 discriminator 3 view .LVU611
 730:Drivers/STM32F0xx_HAL_Driver/Src/stm32f0xx_ll_usb.c ****     temp2 = temp1 | ((uint16_t)((uint16_t) *pBuf << 8));
 2090              		.loc 1 730 5 discriminator 3 view .LVU612
 2091              		.loc 1 730 44 is_stmt 0 discriminator 3 view .LVU613
 2092 0016 4A78     		ldrb	r2, [r1, #1]
 2093              		.loc 1 730 22 discriminator 3 view .LVU614
 2094 0018 1202     		lsls	r2, r2, #8
 2095              	.LVL212:
 731:Drivers/STM32F0xx_HAL_Driver/Src/stm32f0xx_ll_usb.c ****     *pdwVal = (uint16_t)temp2;
 2096              		.loc 1 731 5 is_stmt 1 discriminator 3 view .LVU615
 2097              		.loc 1 731 15 is_stmt 0 discriminator 3 view .LVU616
 2098 001a 2243     		orrs	r2, r4
 2099              	.LVL213:
 2100              		.loc 1 731 13 discriminator 3 view .LVU617
 2101 001c 0280     		strh	r2, [r0]
 732:Drivers/STM32F0xx_HAL_Driver/Src/stm32f0xx_ll_usb.c ****     pdwVal++;
 2102              		.loc 1 732 5 is_stmt 1 discriminator 3 view .LVU618
 2103              		.loc 1 732 11 is_stmt 0 discriminator 3 view .LVU619
 2104 001e 0230     		adds	r0, r0, #2
 2105              	.LVL214:
 733:Drivers/STM32F0xx_HAL_Driver/Src/stm32f0xx_ll_usb.c **** 
 734:Drivers/STM32F0xx_HAL_Driver/Src/stm32f0xx_ll_usb.c **** #if PMA_ACCESS > 1U
 735:Drivers/STM32F0xx_HAL_Driver/Src/stm32f0xx_ll_usb.c ****     pdwVal++;
 736:Drivers/STM32F0xx_HAL_Driver/Src/stm32f0xx_ll_usb.c **** #endif
ARM GAS  /tmp/cclsNgIg.s 			page 55


 737:Drivers/STM32F0xx_HAL_Driver/Src/stm32f0xx_ll_usb.c **** 
 738:Drivers/STM32F0xx_HAL_Driver/Src/stm32f0xx_ll_usb.c ****     pBuf++;
 2106              		.loc 1 738 5 is_stmt 1 discriminator 3 view .LVU620
 2107              		.loc 1 738 9 is_stmt 0 discriminator 3 view .LVU621
 2108 0020 0231     		adds	r1, r1, #2
 2109              	.LVL215:
 726:Drivers/STM32F0xx_HAL_Driver/Src/stm32f0xx_ll_usb.c ****   {
 2110              		.loc 1 726 24 is_stmt 1 discriminator 3 view .LVU622
 726:Drivers/STM32F0xx_HAL_Driver/Src/stm32f0xx_ll_usb.c ****   {
 2111              		.loc 1 726 25 is_stmt 0 discriminator 3 view .LVU623
 2112 0022 013B     		subs	r3, r3, #1
 2113              	.LVL216:
 726:Drivers/STM32F0xx_HAL_Driver/Src/stm32f0xx_ll_usb.c ****   {
 2114              		.loc 1 726 25 discriminator 3 view .LVU624
 2115 0024 F4E7     		b	.L75
 2116              	.LVL217:
 2117              	.L77:
 739:Drivers/STM32F0xx_HAL_Driver/Src/stm32f0xx_ll_usb.c ****   }
 740:Drivers/STM32F0xx_HAL_Driver/Src/stm32f0xx_ll_usb.c **** }
 2118              		.loc 1 740 1 view .LVU625
 2119              		@ sp needed
 2120 0026 10BD     		pop	{r4, pc}
 2121              		.cfi_endproc
 2122              	.LFE57:
 2124              		.section	.text.USB_EPStartXfer,"ax",%progbits
 2125              		.align	1
 2126              		.global	USB_EPStartXfer
 2127              		.syntax unified
 2128              		.code	16
 2129              		.thumb_func
 2130              		.fpu softvfp
 2132              	USB_EPStartXfer:
 2133              	.LVL218:
 2134              	.LFB47:
 353:Drivers/STM32F0xx_HAL_Driver/Src/stm32f0xx_ll_usb.c ****   uint32_t len;
 2135              		.loc 1 353 1 is_stmt 1 view -0
 2136              		.cfi_startproc
 2137              		@ args = 0, pretend = 0, frame = 0
 2138              		@ frame_needed = 0, uses_anonymous_args = 0
 353:Drivers/STM32F0xx_HAL_Driver/Src/stm32f0xx_ll_usb.c ****   uint32_t len;
 2139              		.loc 1 353 1 is_stmt 0 view .LVU627
 2140 0000 70B5     		push	{r4, r5, r6, lr}
 2141              	.LCFI6:
 2142              		.cfi_def_cfa_offset 16
 2143              		.cfi_offset 4, -16
 2144              		.cfi_offset 5, -12
 2145              		.cfi_offset 6, -8
 2146              		.cfi_offset 14, -4
 2147 0002 0500     		movs	r5, r0
 2148 0004 0C00     		movs	r4, r1
 354:Drivers/STM32F0xx_HAL_Driver/Src/stm32f0xx_ll_usb.c ****   uint16_t pmabuffer;
 2149              		.loc 1 354 3 is_stmt 1 view .LVU628
 355:Drivers/STM32F0xx_HAL_Driver/Src/stm32f0xx_ll_usb.c ****   uint16_t wEPVal;
 2150              		.loc 1 355 3 view .LVU629
 356:Drivers/STM32F0xx_HAL_Driver/Src/stm32f0xx_ll_usb.c **** 
 2151              		.loc 1 356 3 view .LVU630
 359:Drivers/STM32F0xx_HAL_Driver/Src/stm32f0xx_ll_usb.c ****   {
ARM GAS  /tmp/cclsNgIg.s 			page 56


 2152              		.loc 1 359 3 view .LVU631
 359:Drivers/STM32F0xx_HAL_Driver/Src/stm32f0xx_ll_usb.c ****   {
 2153              		.loc 1 359 9 is_stmt 0 view .LVU632
 2154 0006 4A78     		ldrb	r2, [r1, #1]
 359:Drivers/STM32F0xx_HAL_Driver/Src/stm32f0xx_ll_usb.c ****   {
 2155              		.loc 1 359 6 view .LVU633
 2156 0008 012A     		cmp	r2, #1
 2157 000a 2ED0     		beq	.L164
 489:Drivers/STM32F0xx_HAL_Driver/Src/stm32f0xx_ll_usb.c ****     {
 2158              		.loc 1 489 5 is_stmt 1 view .LVU634
 489:Drivers/STM32F0xx_HAL_Driver/Src/stm32f0xx_ll_usb.c ****     {
 2159              		.loc 1 489 11 is_stmt 0 view .LVU635
 2160 000c 0B7B     		ldrb	r3, [r1, #12]
 489:Drivers/STM32F0xx_HAL_Driver/Src/stm32f0xx_ll_usb.c ****     {
 2161              		.loc 1 489 8 view .LVU636
 2162 000e 002B     		cmp	r3, #0
 2163 0010 00D0     		beq	.LCB2194
 2164 0012 67E2     		b	.L130	@long jump
 2165              	.LCB2194:
 492:Drivers/STM32F0xx_HAL_Driver/Src/stm32f0xx_ll_usb.c ****       {
 2166              		.loc 1 492 7 is_stmt 1 view .LVU637
 492:Drivers/STM32F0xx_HAL_Driver/Src/stm32f0xx_ll_usb.c ****       {
 2167              		.loc 1 492 13 is_stmt 0 view .LVU638
 2168 0014 8B69     		ldr	r3, [r1, #24]
 492:Drivers/STM32F0xx_HAL_Driver/Src/stm32f0xx_ll_usb.c ****       {
 2169              		.loc 1 492 28 view .LVU639
 2170 0016 0A69     		ldr	r2, [r1, #16]
 492:Drivers/STM32F0xx_HAL_Driver/Src/stm32f0xx_ll_usb.c ****       {
 2171              		.loc 1 492 10 view .LVU640
 2172 0018 9342     		cmp	r3, r2
 2173 001a 00D8     		bhi	.LCB2199
 2174 001c 49E2     		b	.L131	@long jump
 2175              	.LCB2199:
 494:Drivers/STM32F0xx_HAL_Driver/Src/stm32f0xx_ll_usb.c ****         ep->xfer_len -= len;
 2176              		.loc 1 494 9 is_stmt 1 view .LVU641
 2177              	.LVL219:
 495:Drivers/STM32F0xx_HAL_Driver/Src/stm32f0xx_ll_usb.c ****       }
 2178              		.loc 1 495 9 view .LVU642
 495:Drivers/STM32F0xx_HAL_Driver/Src/stm32f0xx_ll_usb.c ****       }
 2179              		.loc 1 495 22 is_stmt 0 view .LVU643
 2180 001e 9B1A     		subs	r3, r3, r2
 2181 0020 8B61     		str	r3, [r1, #24]
 2182              	.L132:
 503:Drivers/STM32F0xx_HAL_Driver/Src/stm32f0xx_ll_usb.c ****     }
 2183              		.loc 1 503 7 is_stmt 1 view .LVU644
 2184              	.LBB60:
 503:Drivers/STM32F0xx_HAL_Driver/Src/stm32f0xx_ll_usb.c ****     }
 2185              		.loc 1 503 7 view .LVU645
 2186              	.LVL220:
 503:Drivers/STM32F0xx_HAL_Driver/Src/stm32f0xx_ll_usb.c ****     }
 2187              		.loc 1 503 7 view .LVU646
 503:Drivers/STM32F0xx_HAL_Driver/Src/stm32f0xx_ll_usb.c ****     }
 2188              		.loc 1 503 7 view .LVU647
 2189 0022 5023     		movs	r3, #80
 2190 0024 E95A     		ldrh	r1, [r5, r3]
 2191              	.LVL221:
 503:Drivers/STM32F0xx_HAL_Driver/Src/stm32f0xx_ll_usb.c ****     }
ARM GAS  /tmp/cclsNgIg.s 			page 57


 2192              		.loc 1 503 7 is_stmt 0 view .LVU648
 2193 0026 6918     		adds	r1, r5, r1
 2194              	.LVL222:
 503:Drivers/STM32F0xx_HAL_Driver/Src/stm32f0xx_ll_usb.c ****     }
 2195              		.loc 1 503 7 is_stmt 1 view .LVU649
 2196 0028 2378     		ldrb	r3, [r4]
 2197 002a DB00     		lsls	r3, r3, #3
 2198 002c 5B18     		adds	r3, r3, r1
 2199 002e B949     		ldr	r1, .L173
 2200              	.LVL223:
 503:Drivers/STM32F0xx_HAL_Driver/Src/stm32f0xx_ll_usb.c ****     }
 2201              		.loc 1 503 7 is_stmt 0 view .LVU650
 2202 0030 8C46     		mov	ip, r1
 2203 0032 6344     		add	r3, r3, ip
 2204              	.LVL224:
 503:Drivers/STM32F0xx_HAL_Driver/Src/stm32f0xx_ll_usb.c ****     }
 2205              		.loc 1 503 7 is_stmt 1 view .LVU651
 2206              	.LBB61:
 503:Drivers/STM32F0xx_HAL_Driver/Src/stm32f0xx_ll_usb.c ****     }
 2207              		.loc 1 503 7 view .LVU652
 503:Drivers/STM32F0xx_HAL_Driver/Src/stm32f0xx_ll_usb.c ****     }
 2208              		.loc 1 503 7 view .LVU653
 2209 0034 002A     		cmp	r2, #0
 2210 0036 00D0     		beq	.LCB2235
 2211 0038 3FE2     		b	.L133	@long jump
 2212              	.LCB2235:
 503:Drivers/STM32F0xx_HAL_Driver/Src/stm32f0xx_ll_usb.c ****     }
 2213              		.loc 1 503 7 discriminator 1 view .LVU654
 2214 003a 1A88     		ldrh	r2, [r3]
 2215              	.LVL225:
 503:Drivers/STM32F0xx_HAL_Driver/Src/stm32f0xx_ll_usb.c ****     }
 2216              		.loc 1 503 7 is_stmt 0 discriminator 1 view .LVU655
 2217 003c B649     		ldr	r1, .L173+4
 2218 003e 0A40     		ands	r2, r1
 2219 0040 1A80     		strh	r2, [r3]
 503:Drivers/STM32F0xx_HAL_Driver/Src/stm32f0xx_ll_usb.c ****     }
 2220              		.loc 1 503 7 is_stmt 1 discriminator 1 view .LVU656
 2221 0042 1A88     		ldrh	r2, [r3]
 2222 0044 B549     		ldr	r1, .L173+8
 2223 0046 0A43     		orrs	r2, r1
 2224 0048 92B2     		uxth	r2, r2
 2225 004a 1A80     		strh	r2, [r3]
 2226              	.LVL226:
 2227              	.L134:
 503:Drivers/STM32F0xx_HAL_Driver/Src/stm32f0xx_ll_usb.c ****     }
 2228              		.loc 1 503 7 is_stmt 0 discriminator 1 view .LVU657
 2229              	.LBE61:
 2230              	.LBE60:
 549:Drivers/STM32F0xx_HAL_Driver/Src/stm32f0xx_ll_usb.c ****   }
 2231              		.loc 1 549 5 is_stmt 1 view .LVU658
 2232              	.LBB63:
 549:Drivers/STM32F0xx_HAL_Driver/Src/stm32f0xx_ll_usb.c ****   }
 2233              		.loc 1 549 5 view .LVU659
 549:Drivers/STM32F0xx_HAL_Driver/Src/stm32f0xx_ll_usb.c ****   }
 2234              		.loc 1 549 5 view .LVU660
 2235 004c 2078     		ldrb	r0, [r4]
 2236 004e 8000     		lsls	r0, r0, #2
ARM GAS  /tmp/cclsNgIg.s 			page 58


 2237 0050 2D18     		adds	r5, r5, r0
 2238              	.LVL227:
 549:Drivers/STM32F0xx_HAL_Driver/Src/stm32f0xx_ll_usb.c ****   }
 2239              		.loc 1 549 5 is_stmt 0 view .LVU661
 2240 0052 2A88     		ldrh	r2, [r5]
 2241 0054 B24B     		ldr	r3, .L173+12
 2242 0056 1A40     		ands	r2, r3
 2243              	.LVL228:
 549:Drivers/STM32F0xx_HAL_Driver/Src/stm32f0xx_ll_usb.c ****   }
 2244              		.loc 1 549 5 is_stmt 1 view .LVU662
 549:Drivers/STM32F0xx_HAL_Driver/Src/stm32f0xx_ll_usb.c ****   }
 2245              		.loc 1 549 5 view .LVU663
 549:Drivers/STM32F0xx_HAL_Driver/Src/stm32f0xx_ll_usb.c ****   }
 2246              		.loc 1 549 5 view .LVU664
 549:Drivers/STM32F0xx_HAL_Driver/Src/stm32f0xx_ll_usb.c ****   }
 2247              		.loc 1 549 5 view .LVU665
 2248 0058 C023     		movs	r3, #192
 2249 005a 9B01     		lsls	r3, r3, #6
 2250 005c 5A40     		eors	r2, r3
 2251              	.LVL229:
 549:Drivers/STM32F0xx_HAL_Driver/Src/stm32f0xx_ll_usb.c ****   }
 2252              		.loc 1 549 5 view .LVU666
 2253 005e B14B     		ldr	r3, .L173+16
 2254 0060 1343     		orrs	r3, r2
 2255 0062 9BB2     		uxth	r3, r3
 2256 0064 2B80     		strh	r3, [r5]
 2257              	.LBE63:
 552:Drivers/STM32F0xx_HAL_Driver/Src/stm32f0xx_ll_usb.c **** }
 2258              		.loc 1 552 10 is_stmt 0 view .LVU667
 2259 0066 0020     		movs	r0, #0
 2260              	.LVL230:
 2261              	.L129:
 553:Drivers/STM32F0xx_HAL_Driver/Src/stm32f0xx_ll_usb.c **** 
 2262              		.loc 1 553 1 view .LVU668
 2263              		@ sp needed
 2264              	.LVL231:
 553:Drivers/STM32F0xx_HAL_Driver/Src/stm32f0xx_ll_usb.c **** 
 2265              		.loc 1 553 1 view .LVU669
 2266 0068 70BD     		pop	{r4, r5, r6, pc}
 2267              	.LVL232:
 2268              	.L164:
 362:Drivers/STM32F0xx_HAL_Driver/Src/stm32f0xx_ll_usb.c ****     {
 2269              		.loc 1 362 5 is_stmt 1 view .LVU670
 362:Drivers/STM32F0xx_HAL_Driver/Src/stm32f0xx_ll_usb.c ****     {
 2270              		.loc 1 362 11 is_stmt 0 view .LVU671
 2271 006a 8E69     		ldr	r6, [r1, #24]
 362:Drivers/STM32F0xx_HAL_Driver/Src/stm32f0xx_ll_usb.c ****     {
 2272              		.loc 1 362 26 view .LVU672
 2273 006c 0969     		ldr	r1, [r1, #16]
 2274              	.LVL233:
 362:Drivers/STM32F0xx_HAL_Driver/Src/stm32f0xx_ll_usb.c ****     {
 2275              		.loc 1 362 8 view .LVU673
 2276 006e 8E42     		cmp	r6, r1
 2277 0070 00D9     		bls	.L80
 364:Drivers/STM32F0xx_HAL_Driver/Src/stm32f0xx_ll_usb.c ****     }
 2278              		.loc 1 364 11 view .LVU674
 2279 0072 0E00     		movs	r6, r1
ARM GAS  /tmp/cclsNgIg.s 			page 59


 2280              	.L80:
 2281              	.LVL234:
 372:Drivers/STM32F0xx_HAL_Driver/Src/stm32f0xx_ll_usb.c ****     {
 2282              		.loc 1 372 5 is_stmt 1 view .LVU675
 372:Drivers/STM32F0xx_HAL_Driver/Src/stm32f0xx_ll_usb.c ****     {
 2283              		.loc 1 372 11 is_stmt 0 view .LVU676
 2284 0074 237B     		ldrb	r3, [r4, #12]
 372:Drivers/STM32F0xx_HAL_Driver/Src/stm32f0xx_ll_usb.c ****     {
 2285              		.loc 1 372 8 view .LVU677
 2286 0076 002B     		cmp	r3, #0
 2287 0078 21D0     		beq	.L165
 380:Drivers/STM32F0xx_HAL_Driver/Src/stm32f0xx_ll_usb.c ****       {
 2288              		.loc 1 380 7 is_stmt 1 view .LVU678
 380:Drivers/STM32F0xx_HAL_Driver/Src/stm32f0xx_ll_usb.c ****       {
 2289              		.loc 1 380 13 is_stmt 0 view .LVU679
 2290 007a E378     		ldrb	r3, [r4, #3]
 380:Drivers/STM32F0xx_HAL_Driver/Src/stm32f0xx_ll_usb.c ****       {
 2291              		.loc 1 380 10 view .LVU680
 2292 007c 022B     		cmp	r3, #2
 2293 007e 3ED0     		beq	.L166
 467:Drivers/STM32F0xx_HAL_Driver/Src/stm32f0xx_ll_usb.c ****         {
 2294              		.loc 1 467 9 is_stmt 1 view .LVU681
 467:Drivers/STM32F0xx_HAL_Driver/Src/stm32f0xx_ll_usb.c ****         {
 2295              		.loc 1 467 14 is_stmt 0 view .LVU682
 2296 0080 2378     		ldrb	r3, [r4]
 2297 0082 9900     		lsls	r1, r3, #2
 2298 0084 6918     		adds	r1, r5, r1
 2299 0086 0988     		ldrh	r1, [r1]
 467:Drivers/STM32F0xx_HAL_Driver/Src/stm32f0xx_ll_usb.c ****         {
 2300              		.loc 1 467 12 view .LVU683
 2301 0088 4906     		lsls	r1, r1, #25
 2302 008a 00D4     		bmi	.LCB2339
 2303 008c CCE1     		b	.L114	@long jump
 2304              	.LCB2339:
 470:Drivers/STM32F0xx_HAL_Driver/Src/stm32f0xx_ll_usb.c ****           pmabuffer = ep->pmaaddr1;
 2305              		.loc 1 470 11 is_stmt 1 view .LVU684
 2306              	.LBB64:
 470:Drivers/STM32F0xx_HAL_Driver/Src/stm32f0xx_ll_usb.c ****           pmabuffer = ep->pmaaddr1;
 2307              		.loc 1 470 11 view .LVU685
 2308              	.LVL235:
 470:Drivers/STM32F0xx_HAL_Driver/Src/stm32f0xx_ll_usb.c ****           pmabuffer = ep->pmaaddr1;
 2309              		.loc 1 470 11 view .LVU686
 470:Drivers/STM32F0xx_HAL_Driver/Src/stm32f0xx_ll_usb.c ****           pmabuffer = ep->pmaaddr1;
 2310              		.loc 1 470 11 view .LVU687
 2311 008e 002A     		cmp	r2, #0
 2312 0090 00D0     		beq	.LCB2347
 2313 0092 ABE1     		b	.L115	@long jump
 2314              	.LCB2347:
 470:Drivers/STM32F0xx_HAL_Driver/Src/stm32f0xx_ll_usb.c ****           pmabuffer = ep->pmaaddr1;
 2315              		.loc 1 470 11 discriminator 1 view .LVU688
 2316              	.LBB65:
 470:Drivers/STM32F0xx_HAL_Driver/Src/stm32f0xx_ll_usb.c ****           pmabuffer = ep->pmaaddr1;
 2317              		.loc 1 470 11 discriminator 1 view .LVU689
 2318              	.LVL236:
 470:Drivers/STM32F0xx_HAL_Driver/Src/stm32f0xx_ll_usb.c ****           pmabuffer = ep->pmaaddr1;
 2319              		.loc 1 470 11 discriminator 1 view .LVU690
 470:Drivers/STM32F0xx_HAL_Driver/Src/stm32f0xx_ll_usb.c ****           pmabuffer = ep->pmaaddr1;
ARM GAS  /tmp/cclsNgIg.s 			page 60


 2320              		.loc 1 470 11 discriminator 1 view .LVU691
 2321 0094 5032     		adds	r2, r2, #80
 2322 0096 AA5A     		ldrh	r2, [r5, r2]
 2323 0098 AA18     		adds	r2, r5, r2
 2324              	.LVL237:
 470:Drivers/STM32F0xx_HAL_Driver/Src/stm32f0xx_ll_usb.c ****           pmabuffer = ep->pmaaddr1;
 2325              		.loc 1 470 11 discriminator 1 view .LVU692
 2326 009a DB00     		lsls	r3, r3, #3
 2327 009c 9B18     		adds	r3, r3, r2
 2328 009e 9D4A     		ldr	r2, .L173
 2329              	.LVL238:
 470:Drivers/STM32F0xx_HAL_Driver/Src/stm32f0xx_ll_usb.c ****           pmabuffer = ep->pmaaddr1;
 2330              		.loc 1 470 11 is_stmt 0 discriminator 1 view .LVU693
 2331 00a0 9446     		mov	ip, r2
 2332 00a2 6344     		add	r3, r3, ip
 2333              	.LVL239:
 470:Drivers/STM32F0xx_HAL_Driver/Src/stm32f0xx_ll_usb.c ****           pmabuffer = ep->pmaaddr1;
 2334              		.loc 1 470 11 is_stmt 1 discriminator 1 view .LVU694
 2335              	.LBB66:
 470:Drivers/STM32F0xx_HAL_Driver/Src/stm32f0xx_ll_usb.c ****           pmabuffer = ep->pmaaddr1;
 2336              		.loc 1 470 11 discriminator 1 view .LVU695
 470:Drivers/STM32F0xx_HAL_Driver/Src/stm32f0xx_ll_usb.c ****           pmabuffer = ep->pmaaddr1;
 2337              		.loc 1 470 11 discriminator 1 view .LVU696
 2338 00a4 002E     		cmp	r6, #0
 2339 00a6 00D0     		beq	.LCB2372
 2340 00a8 8BE1     		b	.L116	@long jump
 2341              	.LCB2372:
 470:Drivers/STM32F0xx_HAL_Driver/Src/stm32f0xx_ll_usb.c ****           pmabuffer = ep->pmaaddr1;
 2342              		.loc 1 470 11 discriminator 3 view .LVU697
 2343 00aa 1A88     		ldrh	r2, [r3]
 2344 00ac 9A49     		ldr	r1, .L173+4
 2345 00ae 0A40     		ands	r2, r1
 2346 00b0 1A80     		strh	r2, [r3]
 470:Drivers/STM32F0xx_HAL_Driver/Src/stm32f0xx_ll_usb.c ****           pmabuffer = ep->pmaaddr1;
 2347              		.loc 1 470 11 discriminator 3 view .LVU698
 2348 00b2 1A88     		ldrh	r2, [r3]
 2349 00b4 9949     		ldr	r1, .L173+8
 2350 00b6 0A43     		orrs	r2, r1
 2351 00b8 92B2     		uxth	r2, r2
 2352 00ba 1A80     		strh	r2, [r3]
 2353 00bc A0E1     		b	.L117
 2354              	.LVL240:
 2355              	.L165:
 470:Drivers/STM32F0xx_HAL_Driver/Src/stm32f0xx_ll_usb.c ****           pmabuffer = ep->pmaaddr1;
 2356              		.loc 1 470 11 is_stmt 0 discriminator 3 view .LVU699
 2357              	.LBE66:
 2358              	.LBE65:
 2359              	.LBE64:
 374:Drivers/STM32F0xx_HAL_Driver/Src/stm32f0xx_ll_usb.c ****       PCD_SET_EP_TX_CNT(USBx, ep->num, len);
 2360              		.loc 1 374 7 is_stmt 1 view .LVU700
 2361 00be B6B2     		uxth	r6, r6
 2362              	.LVL241:
 374:Drivers/STM32F0xx_HAL_Driver/Src/stm32f0xx_ll_usb.c ****       PCD_SET_EP_TX_CNT(USBx, ep->num, len);
 2363              		.loc 1 374 7 is_stmt 0 view .LVU701
 2364 00c0 E288     		ldrh	r2, [r4, #6]
 2365 00c2 3300     		movs	r3, r6
 2366 00c4 6169     		ldr	r1, [r4, #20]
ARM GAS  /tmp/cclsNgIg.s 			page 61


 2367 00c6 2800     		movs	r0, r5
 2368              	.LVL242:
 374:Drivers/STM32F0xx_HAL_Driver/Src/stm32f0xx_ll_usb.c ****       PCD_SET_EP_TX_CNT(USBx, ep->num, len);
 2369              		.loc 1 374 7 view .LVU702
 2370 00c8 FFF7FEFF 		bl	USB_WritePMA
 2371              	.LVL243:
 375:Drivers/STM32F0xx_HAL_Driver/Src/stm32f0xx_ll_usb.c ****     }
 2372              		.loc 1 375 7 is_stmt 1 view .LVU703
 2373              	.LBB69:
 375:Drivers/STM32F0xx_HAL_Driver/Src/stm32f0xx_ll_usb.c ****     }
 2374              		.loc 1 375 7 view .LVU704
 375:Drivers/STM32F0xx_HAL_Driver/Src/stm32f0xx_ll_usb.c ****     }
 2375              		.loc 1 375 7 view .LVU705
 375:Drivers/STM32F0xx_HAL_Driver/Src/stm32f0xx_ll_usb.c ****     }
 2376              		.loc 1 375 7 view .LVU706
 2377 00cc 5023     		movs	r3, #80
 2378 00ce EA5A     		ldrh	r2, [r5, r3]
 2379 00d0 AA18     		adds	r2, r5, r2
 2380              	.LVL244:
 375:Drivers/STM32F0xx_HAL_Driver/Src/stm32f0xx_ll_usb.c ****     }
 2381              		.loc 1 375 7 view .LVU707
 2382 00d2 2378     		ldrb	r3, [r4]
 2383 00d4 DB00     		lsls	r3, r3, #3
 2384 00d6 9B18     		adds	r3, r3, r2
 2385 00d8 934A     		ldr	r2, .L173+20
 2386              	.LVL245:
 375:Drivers/STM32F0xx_HAL_Driver/Src/stm32f0xx_ll_usb.c ****     }
 2387              		.loc 1 375 7 is_stmt 0 view .LVU708
 2388 00da 9446     		mov	ip, r2
 2389 00dc 6344     		add	r3, r3, ip
 2390              	.LVL246:
 375:Drivers/STM32F0xx_HAL_Driver/Src/stm32f0xx_ll_usb.c ****     }
 2391              		.loc 1 375 7 is_stmt 1 view .LVU709
 2392 00de 1E80     		strh	r6, [r3]
 2393              	.LBE69:
 375:Drivers/STM32F0xx_HAL_Driver/Src/stm32f0xx_ll_usb.c ****     }
 2394              		.loc 1 375 7 view .LVU710
 2395              	.LVL247:
 2396              	.L82:
 481:Drivers/STM32F0xx_HAL_Driver/Src/stm32f0xx_ll_usb.c ****       }
 2397              		.loc 1 481 9 discriminator 6 view .LVU711
 481:Drivers/STM32F0xx_HAL_Driver/Src/stm32f0xx_ll_usb.c ****       }
 2398              		.loc 1 481 9 discriminator 6 view .LVU712
 485:Drivers/STM32F0xx_HAL_Driver/Src/stm32f0xx_ll_usb.c ****   }
 2399              		.loc 1 485 5 discriminator 6 view .LVU713
 2400              	.LBB70:
 485:Drivers/STM32F0xx_HAL_Driver/Src/stm32f0xx_ll_usb.c ****   }
 2401              		.loc 1 485 5 discriminator 6 view .LVU714
 485:Drivers/STM32F0xx_HAL_Driver/Src/stm32f0xx_ll_usb.c ****   }
 2402              		.loc 1 485 5 discriminator 6 view .LVU715
 2403 00e0 2078     		ldrb	r0, [r4]
 2404 00e2 8000     		lsls	r0, r0, #2
 2405 00e4 2D18     		adds	r5, r5, r0
 2406              	.LVL248:
 485:Drivers/STM32F0xx_HAL_Driver/Src/stm32f0xx_ll_usb.c ****   }
 2407              		.loc 1 485 5 is_stmt 0 discriminator 6 view .LVU716
 2408 00e6 2B88     		ldrh	r3, [r5]
ARM GAS  /tmp/cclsNgIg.s 			page 62


 2409 00e8 904A     		ldr	r2, .L173+24
 2410 00ea 1340     		ands	r3, r2
 2411              	.LVL249:
 485:Drivers/STM32F0xx_HAL_Driver/Src/stm32f0xx_ll_usb.c ****   }
 2412              		.loc 1 485 5 is_stmt 1 discriminator 6 view .LVU717
 485:Drivers/STM32F0xx_HAL_Driver/Src/stm32f0xx_ll_usb.c ****   }
 2413              		.loc 1 485 5 discriminator 6 view .LVU718
 485:Drivers/STM32F0xx_HAL_Driver/Src/stm32f0xx_ll_usb.c ****   }
 2414              		.loc 1 485 5 discriminator 6 view .LVU719
 485:Drivers/STM32F0xx_HAL_Driver/Src/stm32f0xx_ll_usb.c ****   }
 2415              		.loc 1 485 5 discriminator 6 view .LVU720
 2416 00ec 3022     		movs	r2, #48
 2417 00ee 5340     		eors	r3, r2
 2418              	.LVL250:
 485:Drivers/STM32F0xx_HAL_Driver/Src/stm32f0xx_ll_usb.c ****   }
 2419              		.loc 1 485 5 is_stmt 0 discriminator 6 view .LVU721
 2420 00f0 9BB2     		uxth	r3, r3
 2421              	.LVL251:
 485:Drivers/STM32F0xx_HAL_Driver/Src/stm32f0xx_ll_usb.c ****   }
 2422              		.loc 1 485 5 is_stmt 1 discriminator 6 view .LVU722
 2423 00f2 8C4A     		ldr	r2, .L173+16
 2424 00f4 1343     		orrs	r3, r2
 2425              	.LVL252:
 485:Drivers/STM32F0xx_HAL_Driver/Src/stm32f0xx_ll_usb.c ****   }
 2426              		.loc 1 485 5 is_stmt 0 discriminator 6 view .LVU723
 2427 00f6 9BB2     		uxth	r3, r3
 2428 00f8 2B80     		strh	r3, [r5]
 2429              	.LBE70:
 485:Drivers/STM32F0xx_HAL_Driver/Src/stm32f0xx_ll_usb.c ****   }
 2430              		.loc 1 485 5 is_stmt 1 discriminator 6 view .LVU724
 552:Drivers/STM32F0xx_HAL_Driver/Src/stm32f0xx_ll_usb.c **** }
 2431              		.loc 1 552 10 is_stmt 0 discriminator 6 view .LVU725
 2432 00fa 0020     		movs	r0, #0
 2433 00fc B4E7     		b	.L129
 2434              	.LVL253:
 2435              	.L166:
 382:Drivers/STM32F0xx_HAL_Driver/Src/stm32f0xx_ll_usb.c ****         {
 2436              		.loc 1 382 9 is_stmt 1 view .LVU726
 382:Drivers/STM32F0xx_HAL_Driver/Src/stm32f0xx_ll_usb.c ****         {
 2437              		.loc 1 382 15 is_stmt 0 view .LVU727
 2438 00fe 236A     		ldr	r3, [r4, #32]
 382:Drivers/STM32F0xx_HAL_Driver/Src/stm32f0xx_ll_usb.c ****         {
 2439              		.loc 1 382 12 view .LVU728
 2440 0100 9942     		cmp	r1, r3
 2441 0102 00D3     		bcc	.LCB2485
 2442 0104 42E1     		b	.L84	@long jump
 2443              	.LCB2485:
 385:Drivers/STM32F0xx_HAL_Driver/Src/stm32f0xx_ll_usb.c **** 
 2444              		.loc 1 385 11 is_stmt 1 view .LVU729
 2445              	.LBB71:
 385:Drivers/STM32F0xx_HAL_Driver/Src/stm32f0xx_ll_usb.c **** 
 2446              		.loc 1 385 11 view .LVU730
 385:Drivers/STM32F0xx_HAL_Driver/Src/stm32f0xx_ll_usb.c **** 
 2447              		.loc 1 385 11 view .LVU731
 2448 0106 2378     		ldrb	r3, [r4]
 2449 0108 9B00     		lsls	r3, r3, #2
 2450 010a EB18     		adds	r3, r5, r3
ARM GAS  /tmp/cclsNgIg.s 			page 63


 2451 010c 1A88     		ldrh	r2, [r3]
 2452 010e 8849     		ldr	r1, .L173+28
 2453 0110 1140     		ands	r1, r2
 2454              	.LVL254:
 385:Drivers/STM32F0xx_HAL_Driver/Src/stm32f0xx_ll_usb.c **** 
 2455              		.loc 1 385 11 view .LVU732
 2456 0112 884A     		ldr	r2, .L173+32
 2457 0114 0A43     		orrs	r2, r1
 2458 0116 92B2     		uxth	r2, r2
 2459 0118 1A80     		strh	r2, [r3]
 2460              	.LBE71:
 385:Drivers/STM32F0xx_HAL_Driver/Src/stm32f0xx_ll_usb.c **** 
 2461              		.loc 1 385 11 view .LVU733
 388:Drivers/STM32F0xx_HAL_Driver/Src/stm32f0xx_ll_usb.c **** 
 2462              		.loc 1 388 11 view .LVU734
 388:Drivers/STM32F0xx_HAL_Driver/Src/stm32f0xx_ll_usb.c **** 
 2463              		.loc 1 388 27 is_stmt 0 view .LVU735
 2464 011a 236A     		ldr	r3, [r4, #32]
 2465 011c 9B1B     		subs	r3, r3, r6
 2466 011e 2362     		str	r3, [r4, #32]
 391:Drivers/STM32F0xx_HAL_Driver/Src/stm32f0xx_ll_usb.c ****           {
 2467              		.loc 1 391 11 is_stmt 1 view .LVU736
 391:Drivers/STM32F0xx_HAL_Driver/Src/stm32f0xx_ll_usb.c ****           {
 2468              		.loc 1 391 16 is_stmt 0 view .LVU737
 2469 0120 2378     		ldrb	r3, [r4]
 2470 0122 9A00     		lsls	r2, r3, #2
 2471 0124 AA18     		adds	r2, r5, r2
 2472 0126 1288     		ldrh	r2, [r2]
 391:Drivers/STM32F0xx_HAL_Driver/Src/stm32f0xx_ll_usb.c ****           {
 2473              		.loc 1 391 14 view .LVU738
 2474 0128 5206     		lsls	r2, r2, #25
 2475 012a 00D4     		bmi	.LCB2521
 2476 012c 8DE0     		b	.L85	@long jump
 2477              	.LCB2521:
 394:Drivers/STM32F0xx_HAL_Driver/Src/stm32f0xx_ll_usb.c ****             pmabuffer = ep->pmaaddr1;
 2478              		.loc 1 394 13 is_stmt 1 view .LVU739
 2479              	.LBB72:
 394:Drivers/STM32F0xx_HAL_Driver/Src/stm32f0xx_ll_usb.c ****             pmabuffer = ep->pmaaddr1;
 2480              		.loc 1 394 13 view .LVU740
 2481              	.LVL255:
 394:Drivers/STM32F0xx_HAL_Driver/Src/stm32f0xx_ll_usb.c ****             pmabuffer = ep->pmaaddr1;
 2482              		.loc 1 394 13 view .LVU741
 394:Drivers/STM32F0xx_HAL_Driver/Src/stm32f0xx_ll_usb.c ****             pmabuffer = ep->pmaaddr1;
 2483              		.loc 1 394 13 view .LVU742
 2484 012e 6278     		ldrb	r2, [r4, #1]
 2485 0130 002A     		cmp	r2, #0
 2486 0132 28D1     		bne	.L86
 394:Drivers/STM32F0xx_HAL_Driver/Src/stm32f0xx_ll_usb.c ****             pmabuffer = ep->pmaaddr1;
 2487              		.loc 1 394 13 discriminator 1 view .LVU743
 2488              	.LBB73:
 394:Drivers/STM32F0xx_HAL_Driver/Src/stm32f0xx_ll_usb.c ****             pmabuffer = ep->pmaaddr1;
 2489              		.loc 1 394 13 discriminator 1 view .LVU744
 2490              	.LVL256:
 394:Drivers/STM32F0xx_HAL_Driver/Src/stm32f0xx_ll_usb.c ****             pmabuffer = ep->pmaaddr1;
 2491              		.loc 1 394 13 discriminator 1 view .LVU745
 394:Drivers/STM32F0xx_HAL_Driver/Src/stm32f0xx_ll_usb.c ****             pmabuffer = ep->pmaaddr1;
 2492              		.loc 1 394 13 discriminator 1 view .LVU746
ARM GAS  /tmp/cclsNgIg.s 			page 64


 2493 0134 5032     		adds	r2, r2, #80
 2494 0136 AA5A     		ldrh	r2, [r5, r2]
 2495 0138 AA18     		adds	r2, r5, r2
 2496              	.LVL257:
 394:Drivers/STM32F0xx_HAL_Driver/Src/stm32f0xx_ll_usb.c ****             pmabuffer = ep->pmaaddr1;
 2497              		.loc 1 394 13 discriminator 1 view .LVU747
 2498 013a DB00     		lsls	r3, r3, #3
 2499 013c 9B18     		adds	r3, r3, r2
 2500 013e 754A     		ldr	r2, .L173
 2501              	.LVL258:
 394:Drivers/STM32F0xx_HAL_Driver/Src/stm32f0xx_ll_usb.c ****             pmabuffer = ep->pmaaddr1;
 2502              		.loc 1 394 13 is_stmt 0 discriminator 1 view .LVU748
 2503 0140 9446     		mov	ip, r2
 2504 0142 6344     		add	r3, r3, ip
 2505              	.LVL259:
 394:Drivers/STM32F0xx_HAL_Driver/Src/stm32f0xx_ll_usb.c ****             pmabuffer = ep->pmaaddr1;
 2506              		.loc 1 394 13 is_stmt 1 discriminator 1 view .LVU749
 2507              	.LBB74:
 394:Drivers/STM32F0xx_HAL_Driver/Src/stm32f0xx_ll_usb.c ****             pmabuffer = ep->pmaaddr1;
 2508              		.loc 1 394 13 discriminator 1 view .LVU750
 394:Drivers/STM32F0xx_HAL_Driver/Src/stm32f0xx_ll_usb.c ****             pmabuffer = ep->pmaaddr1;
 2509              		.loc 1 394 13 discriminator 1 view .LVU751
 2510 0144 002E     		cmp	r6, #0
 2511 0146 09D1     		bne	.L87
 394:Drivers/STM32F0xx_HAL_Driver/Src/stm32f0xx_ll_usb.c ****             pmabuffer = ep->pmaaddr1;
 2512              		.loc 1 394 13 discriminator 3 view .LVU752
 2513 0148 1A88     		ldrh	r2, [r3]
 2514 014a 7349     		ldr	r1, .L173+4
 2515              	.LVL260:
 394:Drivers/STM32F0xx_HAL_Driver/Src/stm32f0xx_ll_usb.c ****             pmabuffer = ep->pmaaddr1;
 2516              		.loc 1 394 13 is_stmt 0 discriminator 3 view .LVU753
 2517 014c 0A40     		ands	r2, r1
 2518 014e 1A80     		strh	r2, [r3]
 394:Drivers/STM32F0xx_HAL_Driver/Src/stm32f0xx_ll_usb.c ****             pmabuffer = ep->pmaaddr1;
 2519              		.loc 1 394 13 is_stmt 1 discriminator 3 view .LVU754
 2520 0150 1A88     		ldrh	r2, [r3]
 2521 0152 7249     		ldr	r1, .L173+8
 2522 0154 0A43     		orrs	r2, r1
 2523 0156 92B2     		uxth	r2, r2
 2524 0158 1A80     		strh	r2, [r3]
 2525 015a 16E0     		b	.L88
 2526              	.LVL261:
 2527              	.L87:
 394:Drivers/STM32F0xx_HAL_Driver/Src/stm32f0xx_ll_usb.c ****             pmabuffer = ep->pmaaddr1;
 2528              		.loc 1 394 13 discriminator 4 view .LVU755
 2529 015c 3E2E     		cmp	r6, #62
 2530 015e 07D8     		bhi	.L89
 394:Drivers/STM32F0xx_HAL_Driver/Src/stm32f0xx_ll_usb.c ****             pmabuffer = ep->pmaaddr1;
 2531              		.loc 1 394 13 discriminator 6 view .LVU756
 394:Drivers/STM32F0xx_HAL_Driver/Src/stm32f0xx_ll_usb.c ****             pmabuffer = ep->pmaaddr1;
 2532              		.loc 1 394 13 discriminator 6 view .LVU757
 2533 0160 7208     		lsrs	r2, r6, #1
 2534              	.LVL262:
 394:Drivers/STM32F0xx_HAL_Driver/Src/stm32f0xx_ll_usb.c ****             pmabuffer = ep->pmaaddr1;
 2535              		.loc 1 394 13 discriminator 6 view .LVU758
 2536 0162 F107     		lsls	r1, r6, #31
 2537 0164 00D5     		bpl	.L90
ARM GAS  /tmp/cclsNgIg.s 			page 65


 2538              	.LVL263:
 394:Drivers/STM32F0xx_HAL_Driver/Src/stm32f0xx_ll_usb.c ****             pmabuffer = ep->pmaaddr1;
 2539              		.loc 1 394 13 discriminator 8 view .LVU759
 2540 0166 0132     		adds	r2, r2, #1
 2541              	.LVL264:
 2542              	.L90:
 394:Drivers/STM32F0xx_HAL_Driver/Src/stm32f0xx_ll_usb.c ****             pmabuffer = ep->pmaaddr1;
 2543              		.loc 1 394 13 discriminator 10 view .LVU760
 2544 0168 9202     		lsls	r2, r2, #10
 2545              	.LVL265:
 394:Drivers/STM32F0xx_HAL_Driver/Src/stm32f0xx_ll_usb.c ****             pmabuffer = ep->pmaaddr1;
 2546              		.loc 1 394 13 is_stmt 0 discriminator 10 view .LVU761
 2547 016a 92B2     		uxth	r2, r2
 2548 016c 1A80     		strh	r2, [r3]
 394:Drivers/STM32F0xx_HAL_Driver/Src/stm32f0xx_ll_usb.c ****             pmabuffer = ep->pmaaddr1;
 2549              		.loc 1 394 13 is_stmt 1 discriminator 10 view .LVU762
 2550 016e 0CE0     		b	.L88
 2551              	.LVL266:
 2552              	.L89:
 394:Drivers/STM32F0xx_HAL_Driver/Src/stm32f0xx_ll_usb.c ****             pmabuffer = ep->pmaaddr1;
 2553              		.loc 1 394 13 discriminator 7 view .LVU763
 394:Drivers/STM32F0xx_HAL_Driver/Src/stm32f0xx_ll_usb.c ****             pmabuffer = ep->pmaaddr1;
 2554              		.loc 1 394 13 discriminator 7 view .LVU764
 2555 0170 7209     		lsrs	r2, r6, #5
 2556              	.LVL267:
 394:Drivers/STM32F0xx_HAL_Driver/Src/stm32f0xx_ll_usb.c ****             pmabuffer = ep->pmaaddr1;
 2557              		.loc 1 394 13 discriminator 7 view .LVU765
 2558 0172 F106     		lsls	r1, r6, #27
 2559 0174 00D1     		bne	.L91
 2560              	.LVL268:
 394:Drivers/STM32F0xx_HAL_Driver/Src/stm32f0xx_ll_usb.c ****             pmabuffer = ep->pmaaddr1;
 2561              		.loc 1 394 13 discriminator 12 view .LVU766
 2562 0176 013A     		subs	r2, r2, #1
 2563              	.LVL269:
 2564              	.L91:
 394:Drivers/STM32F0xx_HAL_Driver/Src/stm32f0xx_ll_usb.c ****             pmabuffer = ep->pmaaddr1;
 2565              		.loc 1 394 13 discriminator 14 view .LVU767
 2566 0178 9202     		lsls	r2, r2, #10
 2567              	.LVL270:
 394:Drivers/STM32F0xx_HAL_Driver/Src/stm32f0xx_ll_usb.c ****             pmabuffer = ep->pmaaddr1;
 2568              		.loc 1 394 13 is_stmt 0 discriminator 14 view .LVU768
 2569 017a 92B2     		uxth	r2, r2
 2570 017c 6749     		ldr	r1, .L173+8
 2571 017e 0A43     		orrs	r2, r1
 2572 0180 92B2     		uxth	r2, r2
 2573 0182 1A80     		strh	r2, [r3]
 2574 0184 01E0     		b	.L88
 2575              	.LVL271:
 2576              	.L86:
 394:Drivers/STM32F0xx_HAL_Driver/Src/stm32f0xx_ll_usb.c ****             pmabuffer = ep->pmaaddr1;
 2577              		.loc 1 394 13 discriminator 14 view .LVU769
 2578              	.LBE74:
 2579              	.LBE73:
 394:Drivers/STM32F0xx_HAL_Driver/Src/stm32f0xx_ll_usb.c ****             pmabuffer = ep->pmaaddr1;
 2580              		.loc 1 394 13 is_stmt 1 discriminator 2 view .LVU770
 2581 0186 012A     		cmp	r2, #1
 2582 0188 26D0     		beq	.L167
ARM GAS  /tmp/cclsNgIg.s 			page 66


 2583              	.LVL272:
 2584              	.L88:
 394:Drivers/STM32F0xx_HAL_Driver/Src/stm32f0xx_ll_usb.c ****             pmabuffer = ep->pmaaddr1;
 2585              		.loc 1 394 13 is_stmt 0 discriminator 2 view .LVU771
 2586              	.LBE72:
 394:Drivers/STM32F0xx_HAL_Driver/Src/stm32f0xx_ll_usb.c ****             pmabuffer = ep->pmaaddr1;
 2587              		.loc 1 394 13 is_stmt 1 discriminator 18 view .LVU772
 395:Drivers/STM32F0xx_HAL_Driver/Src/stm32f0xx_ll_usb.c **** 
 2588              		.loc 1 395 13 discriminator 18 view .LVU773
 395:Drivers/STM32F0xx_HAL_Driver/Src/stm32f0xx_ll_usb.c **** 
 2589              		.loc 1 395 23 is_stmt 0 discriminator 18 view .LVU774
 2590 018a 6289     		ldrh	r2, [r4, #10]
 2591              	.LVL273:
 398:Drivers/STM32F0xx_HAL_Driver/Src/stm32f0xx_ll_usb.c ****             ep->xfer_buff += len;
 2592              		.loc 1 398 13 is_stmt 1 discriminator 18 view .LVU775
 2593 018c B3B2     		uxth	r3, r6
 2594 018e 6169     		ldr	r1, [r4, #20]
 2595 0190 2800     		movs	r0, r5
 2596              	.LVL274:
 398:Drivers/STM32F0xx_HAL_Driver/Src/stm32f0xx_ll_usb.c ****             ep->xfer_buff += len;
 2597              		.loc 1 398 13 is_stmt 0 discriminator 18 view .LVU776
 2598 0192 FFF7FEFF 		bl	USB_WritePMA
 2599              	.LVL275:
 399:Drivers/STM32F0xx_HAL_Driver/Src/stm32f0xx_ll_usb.c **** 
 2600              		.loc 1 399 13 is_stmt 1 discriminator 18 view .LVU777
 399:Drivers/STM32F0xx_HAL_Driver/Src/stm32f0xx_ll_usb.c **** 
 2601              		.loc 1 399 27 is_stmt 0 discriminator 18 view .LVU778
 2602 0196 6369     		ldr	r3, [r4, #20]
 2603 0198 9B19     		adds	r3, r3, r6
 2604 019a 6361     		str	r3, [r4, #20]
 401:Drivers/STM32F0xx_HAL_Driver/Src/stm32f0xx_ll_usb.c ****             {
 2605              		.loc 1 401 13 is_stmt 1 discriminator 18 view .LVU779
 401:Drivers/STM32F0xx_HAL_Driver/Src/stm32f0xx_ll_usb.c ****             {
 2606              		.loc 1 401 19 is_stmt 0 discriminator 18 view .LVU780
 2607 019c 236A     		ldr	r3, [r4, #32]
 401:Drivers/STM32F0xx_HAL_Driver/Src/stm32f0xx_ll_usb.c ****             {
 2608              		.loc 1 401 16 discriminator 18 view .LVU781
 2609 019e 2269     		ldr	r2, [r4, #16]
 2610 01a0 9342     		cmp	r3, r2
 2611 01a2 24D9     		bls	.L92
 403:Drivers/STM32F0xx_HAL_Driver/Src/stm32f0xx_ll_usb.c ****             }
 2612              		.loc 1 403 15 is_stmt 1 view .LVU782
 403:Drivers/STM32F0xx_HAL_Driver/Src/stm32f0xx_ll_usb.c ****             }
 2613              		.loc 1 403 31 is_stmt 0 view .LVU783
 2614 01a4 9B1B     		subs	r3, r3, r6
 2615 01a6 2362     		str	r3, [r4, #32]
 2616              	.L93:
 412:Drivers/STM32F0xx_HAL_Driver/Src/stm32f0xx_ll_usb.c ****             pmabuffer = ep->pmaaddr0;
 2617              		.loc 1 412 13 is_stmt 1 view .LVU784
 412:Drivers/STM32F0xx_HAL_Driver/Src/stm32f0xx_ll_usb.c ****             pmabuffer = ep->pmaaddr0;
 2618              		.loc 1 412 13 view .LVU785
 2619 01a8 6378     		ldrb	r3, [r4, #1]
 2620 01aa 002B     		cmp	r3, #0
 2621 01ac 38D1     		bne	.L94
 412:Drivers/STM32F0xx_HAL_Driver/Src/stm32f0xx_ll_usb.c ****             pmabuffer = ep->pmaaddr0;
 2622              		.loc 1 412 13 discriminator 1 view .LVU786
 2623              	.LBB75:
ARM GAS  /tmp/cclsNgIg.s 			page 67


 412:Drivers/STM32F0xx_HAL_Driver/Src/stm32f0xx_ll_usb.c ****             pmabuffer = ep->pmaaddr0;
 2624              		.loc 1 412 13 discriminator 1 view .LVU787
 2625              	.LVL276:
 412:Drivers/STM32F0xx_HAL_Driver/Src/stm32f0xx_ll_usb.c ****             pmabuffer = ep->pmaaddr0;
 2626              		.loc 1 412 13 discriminator 1 view .LVU788
 412:Drivers/STM32F0xx_HAL_Driver/Src/stm32f0xx_ll_usb.c ****             pmabuffer = ep->pmaaddr0;
 2627              		.loc 1 412 13 discriminator 1 view .LVU789
 2628 01ae 5033     		adds	r3, r3, #80
 2629 01b0 EA5A     		ldrh	r2, [r5, r3]
 2630 01b2 AA18     		adds	r2, r5, r2
 2631              	.LVL277:
 412:Drivers/STM32F0xx_HAL_Driver/Src/stm32f0xx_ll_usb.c ****             pmabuffer = ep->pmaaddr0;
 2632              		.loc 1 412 13 discriminator 1 view .LVU790
 2633 01b4 2378     		ldrb	r3, [r4]
 2634 01b6 DB00     		lsls	r3, r3, #3
 2635 01b8 9B18     		adds	r3, r3, r2
 2636 01ba 5B4A     		ldr	r2, .L173+20
 2637              	.LVL278:
 412:Drivers/STM32F0xx_HAL_Driver/Src/stm32f0xx_ll_usb.c ****             pmabuffer = ep->pmaaddr0;
 2638              		.loc 1 412 13 is_stmt 0 discriminator 1 view .LVU791
 2639 01bc 9446     		mov	ip, r2
 2640 01be 6344     		add	r3, r3, ip
 2641              	.LVL279:
 412:Drivers/STM32F0xx_HAL_Driver/Src/stm32f0xx_ll_usb.c ****             pmabuffer = ep->pmaaddr0;
 2642              		.loc 1 412 13 is_stmt 1 discriminator 1 view .LVU792
 2643              	.LBB76:
 412:Drivers/STM32F0xx_HAL_Driver/Src/stm32f0xx_ll_usb.c ****             pmabuffer = ep->pmaaddr0;
 2644              		.loc 1 412 13 discriminator 1 view .LVU793
 412:Drivers/STM32F0xx_HAL_Driver/Src/stm32f0xx_ll_usb.c ****             pmabuffer = ep->pmaaddr0;
 2645              		.loc 1 412 13 discriminator 1 view .LVU794
 2646 01c0 002E     		cmp	r6, #0
 2647 01c2 18D1     		bne	.L95
 412:Drivers/STM32F0xx_HAL_Driver/Src/stm32f0xx_ll_usb.c ****             pmabuffer = ep->pmaaddr0;
 2648              		.loc 1 412 13 discriminator 3 view .LVU795
 2649 01c4 1A88     		ldrh	r2, [r3]
 2650 01c6 5449     		ldr	r1, .L173+4
 2651 01c8 0A40     		ands	r2, r1
 2652 01ca 1A80     		strh	r2, [r3]
 412:Drivers/STM32F0xx_HAL_Driver/Src/stm32f0xx_ll_usb.c ****             pmabuffer = ep->pmaaddr0;
 2653              		.loc 1 412 13 discriminator 3 view .LVU796
 2654 01cc 1A88     		ldrh	r2, [r3]
 2655 01ce 5349     		ldr	r1, .L173+8
 2656 01d0 0A43     		orrs	r2, r1
 2657 01d2 92B2     		uxth	r2, r2
 2658 01d4 1A80     		strh	r2, [r3]
 2659 01d6 25E0     		b	.L96
 2660              	.LVL280:
 2661              	.L167:
 412:Drivers/STM32F0xx_HAL_Driver/Src/stm32f0xx_ll_usb.c ****             pmabuffer = ep->pmaaddr0;
 2662              		.loc 1 412 13 is_stmt 0 discriminator 3 view .LVU797
 2663              	.LBE76:
 2664              	.LBE75:
 2665              	.LBB78:
 394:Drivers/STM32F0xx_HAL_Driver/Src/stm32f0xx_ll_usb.c ****             pmabuffer = ep->pmaaddr1;
 2666              		.loc 1 394 13 is_stmt 1 discriminator 16 view .LVU798
 2667 01d8 4F32     		adds	r2, r2, #79
 2668 01da AA5A     		ldrh	r2, [r5, r2]
ARM GAS  /tmp/cclsNgIg.s 			page 68


 2669 01dc AA18     		adds	r2, r5, r2
 2670              	.LVL281:
 394:Drivers/STM32F0xx_HAL_Driver/Src/stm32f0xx_ll_usb.c ****             pmabuffer = ep->pmaaddr1;
 2671              		.loc 1 394 13 discriminator 16 view .LVU799
 2672 01de DB00     		lsls	r3, r3, #3
 2673 01e0 9B18     		adds	r3, r3, r2
 2674 01e2 4C4A     		ldr	r2, .L173
 2675              	.LVL282:
 394:Drivers/STM32F0xx_HAL_Driver/Src/stm32f0xx_ll_usb.c ****             pmabuffer = ep->pmaaddr1;
 2676              		.loc 1 394 13 is_stmt 0 discriminator 16 view .LVU800
 2677 01e4 9446     		mov	ip, r2
 2678 01e6 6344     		add	r3, r3, ip
 2679              	.LVL283:
 394:Drivers/STM32F0xx_HAL_Driver/Src/stm32f0xx_ll_usb.c ****             pmabuffer = ep->pmaaddr1;
 2680              		.loc 1 394 13 is_stmt 1 discriminator 16 view .LVU801
 2681 01e8 B2B2     		uxth	r2, r6
 2682 01ea 1A80     		strh	r2, [r3]
 2683 01ec CDE7     		b	.L88
 2684              	.LVL284:
 2685              	.L92:
 394:Drivers/STM32F0xx_HAL_Driver/Src/stm32f0xx_ll_usb.c ****             pmabuffer = ep->pmaaddr1;
 2686              		.loc 1 394 13 is_stmt 0 discriminator 16 view .LVU802
 2687              	.LBE78:
 407:Drivers/STM32F0xx_HAL_Driver/Src/stm32f0xx_ll_usb.c ****               ep->xfer_len_db = 0U;
 2688              		.loc 1 407 15 is_stmt 1 view .LVU803
 408:Drivers/STM32F0xx_HAL_Driver/Src/stm32f0xx_ll_usb.c ****             }
 2689              		.loc 1 408 15 view .LVU804
 408:Drivers/STM32F0xx_HAL_Driver/Src/stm32f0xx_ll_usb.c ****             }
 2690              		.loc 1 408 31 is_stmt 0 view .LVU805
 2691 01ee 0022     		movs	r2, #0
 2692 01f0 2262     		str	r2, [r4, #32]
 407:Drivers/STM32F0xx_HAL_Driver/Src/stm32f0xx_ll_usb.c ****               ep->xfer_len_db = 0U;
 2693              		.loc 1 407 19 view .LVU806
 2694 01f2 1E00     		movs	r6, r3
 2695 01f4 D8E7     		b	.L93
 2696              	.LVL285:
 2697              	.L95:
 2698              	.LBB79:
 2699              	.LBB77:
 412:Drivers/STM32F0xx_HAL_Driver/Src/stm32f0xx_ll_usb.c ****             pmabuffer = ep->pmaaddr0;
 2700              		.loc 1 412 13 is_stmt 1 discriminator 4 view .LVU807
 2701 01f6 3E2E     		cmp	r6, #62
 2702 01f8 07D8     		bhi	.L97
 412:Drivers/STM32F0xx_HAL_Driver/Src/stm32f0xx_ll_usb.c ****             pmabuffer = ep->pmaaddr0;
 2703              		.loc 1 412 13 discriminator 6 view .LVU808
 412:Drivers/STM32F0xx_HAL_Driver/Src/stm32f0xx_ll_usb.c ****             pmabuffer = ep->pmaaddr0;
 2704              		.loc 1 412 13 discriminator 6 view .LVU809
 2705 01fa 7208     		lsrs	r2, r6, #1
 2706              	.LVL286:
 412:Drivers/STM32F0xx_HAL_Driver/Src/stm32f0xx_ll_usb.c ****             pmabuffer = ep->pmaaddr0;
 2707              		.loc 1 412 13 discriminator 6 view .LVU810
 2708 01fc F107     		lsls	r1, r6, #31
 2709 01fe 00D5     		bpl	.L98
 412:Drivers/STM32F0xx_HAL_Driver/Src/stm32f0xx_ll_usb.c ****             pmabuffer = ep->pmaaddr0;
 2710              		.loc 1 412 13 discriminator 8 view .LVU811
 2711 0200 0132     		adds	r2, r2, #1
 2712              	.LVL287:
ARM GAS  /tmp/cclsNgIg.s 			page 69


 2713              	.L98:
 412:Drivers/STM32F0xx_HAL_Driver/Src/stm32f0xx_ll_usb.c ****             pmabuffer = ep->pmaaddr0;
 2714              		.loc 1 412 13 discriminator 10 view .LVU812
 2715 0202 9202     		lsls	r2, r2, #10
 2716              	.LVL288:
 412:Drivers/STM32F0xx_HAL_Driver/Src/stm32f0xx_ll_usb.c ****             pmabuffer = ep->pmaaddr0;
 2717              		.loc 1 412 13 is_stmt 0 discriminator 10 view .LVU813
 2718 0204 92B2     		uxth	r2, r2
 2719 0206 1A80     		strh	r2, [r3]
 412:Drivers/STM32F0xx_HAL_Driver/Src/stm32f0xx_ll_usb.c ****             pmabuffer = ep->pmaaddr0;
 2720              		.loc 1 412 13 is_stmt 1 discriminator 10 view .LVU814
 2721 0208 0CE0     		b	.L96
 2722              	.L97:
 412:Drivers/STM32F0xx_HAL_Driver/Src/stm32f0xx_ll_usb.c ****             pmabuffer = ep->pmaaddr0;
 2723              		.loc 1 412 13 discriminator 7 view .LVU815
 412:Drivers/STM32F0xx_HAL_Driver/Src/stm32f0xx_ll_usb.c ****             pmabuffer = ep->pmaaddr0;
 2724              		.loc 1 412 13 discriminator 7 view .LVU816
 2725 020a 7209     		lsrs	r2, r6, #5
 2726              	.LVL289:
 412:Drivers/STM32F0xx_HAL_Driver/Src/stm32f0xx_ll_usb.c ****             pmabuffer = ep->pmaaddr0;
 2727              		.loc 1 412 13 discriminator 7 view .LVU817
 2728 020c F106     		lsls	r1, r6, #27
 2729 020e 00D1     		bne	.L99
 412:Drivers/STM32F0xx_HAL_Driver/Src/stm32f0xx_ll_usb.c ****             pmabuffer = ep->pmaaddr0;
 2730              		.loc 1 412 13 discriminator 12 view .LVU818
 2731 0210 013A     		subs	r2, r2, #1
 2732              	.LVL290:
 2733              	.L99:
 412:Drivers/STM32F0xx_HAL_Driver/Src/stm32f0xx_ll_usb.c ****             pmabuffer = ep->pmaaddr0;
 2734              		.loc 1 412 13 discriminator 14 view .LVU819
 2735 0212 9202     		lsls	r2, r2, #10
 2736              	.LVL291:
 412:Drivers/STM32F0xx_HAL_Driver/Src/stm32f0xx_ll_usb.c ****             pmabuffer = ep->pmaaddr0;
 2737              		.loc 1 412 13 is_stmt 0 discriminator 14 view .LVU820
 2738 0214 92B2     		uxth	r2, r2
 2739 0216 4149     		ldr	r1, .L173+8
 2740 0218 0A43     		orrs	r2, r1
 2741 021a 92B2     		uxth	r2, r2
 2742 021c 1A80     		strh	r2, [r3]
 2743 021e 01E0     		b	.L96
 2744              	.LVL292:
 2745              	.L94:
 412:Drivers/STM32F0xx_HAL_Driver/Src/stm32f0xx_ll_usb.c ****             pmabuffer = ep->pmaaddr0;
 2746              		.loc 1 412 13 discriminator 14 view .LVU821
 2747              	.LBE77:
 2748              	.LBE79:
 412:Drivers/STM32F0xx_HAL_Driver/Src/stm32f0xx_ll_usb.c ****             pmabuffer = ep->pmaaddr0;
 2749              		.loc 1 412 13 is_stmt 1 discriminator 2 view .LVU822
 2750 0220 012B     		cmp	r3, #1
 2751 0222 06D0     		beq	.L168
 2752              	.L96:
 412:Drivers/STM32F0xx_HAL_Driver/Src/stm32f0xx_ll_usb.c ****             pmabuffer = ep->pmaaddr0;
 2753              		.loc 1 412 13 discriminator 18 view .LVU823
 412:Drivers/STM32F0xx_HAL_Driver/Src/stm32f0xx_ll_usb.c ****             pmabuffer = ep->pmaaddr0;
 2754              		.loc 1 412 13 discriminator 18 view .LVU824
 413:Drivers/STM32F0xx_HAL_Driver/Src/stm32f0xx_ll_usb.c **** 
 2755              		.loc 1 413 13 discriminator 18 view .LVU825
ARM GAS  /tmp/cclsNgIg.s 			page 70


 413:Drivers/STM32F0xx_HAL_Driver/Src/stm32f0xx_ll_usb.c **** 
 2756              		.loc 1 413 23 is_stmt 0 discriminator 18 view .LVU826
 2757 0224 2289     		ldrh	r2, [r4, #8]
 2758              	.LVL293:
 416:Drivers/STM32F0xx_HAL_Driver/Src/stm32f0xx_ll_usb.c ****           }
 2759              		.loc 1 416 13 is_stmt 1 discriminator 18 view .LVU827
 2760 0226 B3B2     		uxth	r3, r6
 2761 0228 6169     		ldr	r1, [r4, #20]
 2762 022a 2800     		movs	r0, r5
 2763 022c FFF7FEFF 		bl	USB_WritePMA
 2764              	.LVL294:
 416:Drivers/STM32F0xx_HAL_Driver/Src/stm32f0xx_ll_usb.c ****           }
 2765              		.loc 1 416 13 is_stmt 0 discriminator 18 view .LVU828
 2766 0230 56E7     		b	.L82
 2767              	.L168:
 412:Drivers/STM32F0xx_HAL_Driver/Src/stm32f0xx_ll_usb.c ****             pmabuffer = ep->pmaaddr0;
 2768              		.loc 1 412 13 is_stmt 1 discriminator 16 view .LVU829
 2769              	.LBB80:
 412:Drivers/STM32F0xx_HAL_Driver/Src/stm32f0xx_ll_usb.c ****             pmabuffer = ep->pmaaddr0;
 2770              		.loc 1 412 13 discriminator 16 view .LVU830
 2771              	.LVL295:
 412:Drivers/STM32F0xx_HAL_Driver/Src/stm32f0xx_ll_usb.c ****             pmabuffer = ep->pmaaddr0;
 2772              		.loc 1 412 13 discriminator 16 view .LVU831
 412:Drivers/STM32F0xx_HAL_Driver/Src/stm32f0xx_ll_usb.c ****             pmabuffer = ep->pmaaddr0;
 2773              		.loc 1 412 13 discriminator 16 view .LVU832
 2774 0232 4F33     		adds	r3, r3, #79
 2775 0234 EA5A     		ldrh	r2, [r5, r3]
 2776 0236 AA18     		adds	r2, r5, r2
 2777              	.LVL296:
 412:Drivers/STM32F0xx_HAL_Driver/Src/stm32f0xx_ll_usb.c ****             pmabuffer = ep->pmaaddr0;
 2778              		.loc 1 412 13 discriminator 16 view .LVU833
 2779 0238 2378     		ldrb	r3, [r4]
 2780 023a DB00     		lsls	r3, r3, #3
 2781 023c 9B18     		adds	r3, r3, r2
 2782 023e 3A4A     		ldr	r2, .L173+20
 2783              	.LVL297:
 412:Drivers/STM32F0xx_HAL_Driver/Src/stm32f0xx_ll_usb.c ****             pmabuffer = ep->pmaaddr0;
 2784              		.loc 1 412 13 is_stmt 0 discriminator 16 view .LVU834
 2785 0240 9446     		mov	ip, r2
 2786 0242 6344     		add	r3, r3, ip
 2787              	.LVL298:
 412:Drivers/STM32F0xx_HAL_Driver/Src/stm32f0xx_ll_usb.c ****             pmabuffer = ep->pmaaddr0;
 2788              		.loc 1 412 13 is_stmt 1 discriminator 16 view .LVU835
 2789 0244 B2B2     		uxth	r2, r6
 2790 0246 1A80     		strh	r2, [r3]
 2791 0248 ECE7     		b	.L96
 2792              	.LVL299:
 2793              	.L85:
 412:Drivers/STM32F0xx_HAL_Driver/Src/stm32f0xx_ll_usb.c ****             pmabuffer = ep->pmaaddr0;
 2794              		.loc 1 412 13 is_stmt 0 discriminator 16 view .LVU836
 2795              	.LBE80:
 421:Drivers/STM32F0xx_HAL_Driver/Src/stm32f0xx_ll_usb.c ****             pmabuffer = ep->pmaaddr0;
 2796              		.loc 1 421 13 is_stmt 1 view .LVU837
 421:Drivers/STM32F0xx_HAL_Driver/Src/stm32f0xx_ll_usb.c ****             pmabuffer = ep->pmaaddr0;
 2797              		.loc 1 421 13 view .LVU838
 2798 024a 6278     		ldrb	r2, [r4, #1]
 2799 024c 002A     		cmp	r2, #0
ARM GAS  /tmp/cclsNgIg.s 			page 71


 2800 024e 28D1     		bne	.L100
 421:Drivers/STM32F0xx_HAL_Driver/Src/stm32f0xx_ll_usb.c ****             pmabuffer = ep->pmaaddr0;
 2801              		.loc 1 421 13 discriminator 1 view .LVU839
 2802              	.LBB81:
 421:Drivers/STM32F0xx_HAL_Driver/Src/stm32f0xx_ll_usb.c ****             pmabuffer = ep->pmaaddr0;
 2803              		.loc 1 421 13 discriminator 1 view .LVU840
 2804              	.LVL300:
 421:Drivers/STM32F0xx_HAL_Driver/Src/stm32f0xx_ll_usb.c ****             pmabuffer = ep->pmaaddr0;
 2805              		.loc 1 421 13 discriminator 1 view .LVU841
 421:Drivers/STM32F0xx_HAL_Driver/Src/stm32f0xx_ll_usb.c ****             pmabuffer = ep->pmaaddr0;
 2806              		.loc 1 421 13 discriminator 1 view .LVU842
 2807 0250 5032     		adds	r2, r2, #80
 2808 0252 AA5A     		ldrh	r2, [r5, r2]
 2809 0254 AA18     		adds	r2, r5, r2
 2810              	.LVL301:
 421:Drivers/STM32F0xx_HAL_Driver/Src/stm32f0xx_ll_usb.c ****             pmabuffer = ep->pmaaddr0;
 2811              		.loc 1 421 13 discriminator 1 view .LVU843
 2812 0256 DB00     		lsls	r3, r3, #3
 2813 0258 9B18     		adds	r3, r3, r2
 2814 025a 334A     		ldr	r2, .L173+20
 2815              	.LVL302:
 421:Drivers/STM32F0xx_HAL_Driver/Src/stm32f0xx_ll_usb.c ****             pmabuffer = ep->pmaaddr0;
 2816              		.loc 1 421 13 is_stmt 0 discriminator 1 view .LVU844
 2817 025c 9446     		mov	ip, r2
 2818 025e 6344     		add	r3, r3, ip
 2819              	.LVL303:
 421:Drivers/STM32F0xx_HAL_Driver/Src/stm32f0xx_ll_usb.c ****             pmabuffer = ep->pmaaddr0;
 2820              		.loc 1 421 13 is_stmt 1 discriminator 1 view .LVU845
 2821              	.LBB82:
 421:Drivers/STM32F0xx_HAL_Driver/Src/stm32f0xx_ll_usb.c ****             pmabuffer = ep->pmaaddr0;
 2822              		.loc 1 421 13 discriminator 1 view .LVU846
 421:Drivers/STM32F0xx_HAL_Driver/Src/stm32f0xx_ll_usb.c ****             pmabuffer = ep->pmaaddr0;
 2823              		.loc 1 421 13 discriminator 1 view .LVU847
 2824 0260 002E     		cmp	r6, #0
 2825 0262 09D1     		bne	.L101
 421:Drivers/STM32F0xx_HAL_Driver/Src/stm32f0xx_ll_usb.c ****             pmabuffer = ep->pmaaddr0;
 2826              		.loc 1 421 13 discriminator 3 view .LVU848
 2827 0264 1A88     		ldrh	r2, [r3]
 2828 0266 2C49     		ldr	r1, .L173+4
 2829              	.LVL304:
 421:Drivers/STM32F0xx_HAL_Driver/Src/stm32f0xx_ll_usb.c ****             pmabuffer = ep->pmaaddr0;
 2830              		.loc 1 421 13 is_stmt 0 discriminator 3 view .LVU849
 2831 0268 0A40     		ands	r2, r1
 2832 026a 1A80     		strh	r2, [r3]
 421:Drivers/STM32F0xx_HAL_Driver/Src/stm32f0xx_ll_usb.c ****             pmabuffer = ep->pmaaddr0;
 2833              		.loc 1 421 13 is_stmt 1 discriminator 3 view .LVU850
 2834 026c 1A88     		ldrh	r2, [r3]
 2835 026e 2B49     		ldr	r1, .L173+8
 2836 0270 0A43     		orrs	r2, r1
 2837 0272 92B2     		uxth	r2, r2
 2838 0274 1A80     		strh	r2, [r3]
 2839 0276 16E0     		b	.L102
 2840              	.LVL305:
 2841              	.L101:
 421:Drivers/STM32F0xx_HAL_Driver/Src/stm32f0xx_ll_usb.c ****             pmabuffer = ep->pmaaddr0;
 2842              		.loc 1 421 13 discriminator 4 view .LVU851
 2843 0278 3E2E     		cmp	r6, #62
ARM GAS  /tmp/cclsNgIg.s 			page 72


 2844 027a 07D8     		bhi	.L103
 421:Drivers/STM32F0xx_HAL_Driver/Src/stm32f0xx_ll_usb.c ****             pmabuffer = ep->pmaaddr0;
 2845              		.loc 1 421 13 discriminator 6 view .LVU852
 421:Drivers/STM32F0xx_HAL_Driver/Src/stm32f0xx_ll_usb.c ****             pmabuffer = ep->pmaaddr0;
 2846              		.loc 1 421 13 discriminator 6 view .LVU853
 2847 027c 7208     		lsrs	r2, r6, #1
 2848              	.LVL306:
 421:Drivers/STM32F0xx_HAL_Driver/Src/stm32f0xx_ll_usb.c ****             pmabuffer = ep->pmaaddr0;
 2849              		.loc 1 421 13 discriminator 6 view .LVU854
 2850 027e F107     		lsls	r1, r6, #31
 2851 0280 00D5     		bpl	.L104
 2852              	.LVL307:
 421:Drivers/STM32F0xx_HAL_Driver/Src/stm32f0xx_ll_usb.c ****             pmabuffer = ep->pmaaddr0;
 2853              		.loc 1 421 13 discriminator 8 view .LVU855
 2854 0282 0132     		adds	r2, r2, #1
 2855              	.LVL308:
 2856              	.L104:
 421:Drivers/STM32F0xx_HAL_Driver/Src/stm32f0xx_ll_usb.c ****             pmabuffer = ep->pmaaddr0;
 2857              		.loc 1 421 13 discriminator 10 view .LVU856
 2858 0284 9202     		lsls	r2, r2, #10
 2859              	.LVL309:
 421:Drivers/STM32F0xx_HAL_Driver/Src/stm32f0xx_ll_usb.c ****             pmabuffer = ep->pmaaddr0;
 2860              		.loc 1 421 13 is_stmt 0 discriminator 10 view .LVU857
 2861 0286 92B2     		uxth	r2, r2
 2862 0288 1A80     		strh	r2, [r3]
 421:Drivers/STM32F0xx_HAL_Driver/Src/stm32f0xx_ll_usb.c ****             pmabuffer = ep->pmaaddr0;
 2863              		.loc 1 421 13 is_stmt 1 discriminator 10 view .LVU858
 2864 028a 0CE0     		b	.L102
 2865              	.LVL310:
 2866              	.L103:
 421:Drivers/STM32F0xx_HAL_Driver/Src/stm32f0xx_ll_usb.c ****             pmabuffer = ep->pmaaddr0;
 2867              		.loc 1 421 13 discriminator 7 view .LVU859
 421:Drivers/STM32F0xx_HAL_Driver/Src/stm32f0xx_ll_usb.c ****             pmabuffer = ep->pmaaddr0;
 2868              		.loc 1 421 13 discriminator 7 view .LVU860
 2869 028c 7209     		lsrs	r2, r6, #5
 2870              	.LVL311:
 421:Drivers/STM32F0xx_HAL_Driver/Src/stm32f0xx_ll_usb.c ****             pmabuffer = ep->pmaaddr0;
 2871              		.loc 1 421 13 discriminator 7 view .LVU861
 2872 028e F106     		lsls	r1, r6, #27
 2873 0290 00D1     		bne	.L105
 2874              	.LVL312:
 421:Drivers/STM32F0xx_HAL_Driver/Src/stm32f0xx_ll_usb.c ****             pmabuffer = ep->pmaaddr0;
 2875              		.loc 1 421 13 discriminator 12 view .LVU862
 2876 0292 013A     		subs	r2, r2, #1
 2877              	.LVL313:
 2878              	.L105:
 421:Drivers/STM32F0xx_HAL_Driver/Src/stm32f0xx_ll_usb.c ****             pmabuffer = ep->pmaaddr0;
 2879              		.loc 1 421 13 discriminator 14 view .LVU863
 2880 0294 9202     		lsls	r2, r2, #10
 2881              	.LVL314:
 421:Drivers/STM32F0xx_HAL_Driver/Src/stm32f0xx_ll_usb.c ****             pmabuffer = ep->pmaaddr0;
 2882              		.loc 1 421 13 is_stmt 0 discriminator 14 view .LVU864
 2883 0296 92B2     		uxth	r2, r2
 2884 0298 2049     		ldr	r1, .L173+8
 2885 029a 0A43     		orrs	r2, r1
 2886 029c 92B2     		uxth	r2, r2
 2887 029e 1A80     		strh	r2, [r3]
ARM GAS  /tmp/cclsNgIg.s 			page 73


 2888 02a0 01E0     		b	.L102
 2889              	.LVL315:
 2890              	.L100:
 421:Drivers/STM32F0xx_HAL_Driver/Src/stm32f0xx_ll_usb.c ****             pmabuffer = ep->pmaaddr0;
 2891              		.loc 1 421 13 discriminator 14 view .LVU865
 2892              	.LBE82:
 2893              	.LBE81:
 421:Drivers/STM32F0xx_HAL_Driver/Src/stm32f0xx_ll_usb.c ****             pmabuffer = ep->pmaaddr0;
 2894              		.loc 1 421 13 is_stmt 1 discriminator 2 view .LVU866
 2895 02a2 012A     		cmp	r2, #1
 2896 02a4 26D0     		beq	.L169
 2897              	.LVL316:
 2898              	.L102:
 421:Drivers/STM32F0xx_HAL_Driver/Src/stm32f0xx_ll_usb.c ****             pmabuffer = ep->pmaaddr0;
 2899              		.loc 1 421 13 discriminator 18 view .LVU867
 421:Drivers/STM32F0xx_HAL_Driver/Src/stm32f0xx_ll_usb.c ****             pmabuffer = ep->pmaaddr0;
 2900              		.loc 1 421 13 discriminator 18 view .LVU868
 422:Drivers/STM32F0xx_HAL_Driver/Src/stm32f0xx_ll_usb.c **** 
 2901              		.loc 1 422 13 discriminator 18 view .LVU869
 422:Drivers/STM32F0xx_HAL_Driver/Src/stm32f0xx_ll_usb.c **** 
 2902              		.loc 1 422 23 is_stmt 0 discriminator 18 view .LVU870
 2903 02a6 2289     		ldrh	r2, [r4, #8]
 2904              	.LVL317:
 425:Drivers/STM32F0xx_HAL_Driver/Src/stm32f0xx_ll_usb.c ****             ep->xfer_buff += len;
 2905              		.loc 1 425 13 is_stmt 1 discriminator 18 view .LVU871
 2906 02a8 B3B2     		uxth	r3, r6
 2907 02aa 6169     		ldr	r1, [r4, #20]
 2908 02ac 2800     		movs	r0, r5
 2909              	.LVL318:
 425:Drivers/STM32F0xx_HAL_Driver/Src/stm32f0xx_ll_usb.c ****             ep->xfer_buff += len;
 2910              		.loc 1 425 13 is_stmt 0 discriminator 18 view .LVU872
 2911 02ae FFF7FEFF 		bl	USB_WritePMA
 2912              	.LVL319:
 426:Drivers/STM32F0xx_HAL_Driver/Src/stm32f0xx_ll_usb.c **** 
 2913              		.loc 1 426 13 is_stmt 1 discriminator 18 view .LVU873
 426:Drivers/STM32F0xx_HAL_Driver/Src/stm32f0xx_ll_usb.c **** 
 2914              		.loc 1 426 27 is_stmt 0 discriminator 18 view .LVU874
 2915 02b2 6369     		ldr	r3, [r4, #20]
 2916 02b4 9B19     		adds	r3, r3, r6
 2917 02b6 6361     		str	r3, [r4, #20]
 428:Drivers/STM32F0xx_HAL_Driver/Src/stm32f0xx_ll_usb.c ****             {
 2918              		.loc 1 428 13 is_stmt 1 discriminator 18 view .LVU875
 428:Drivers/STM32F0xx_HAL_Driver/Src/stm32f0xx_ll_usb.c ****             {
 2919              		.loc 1 428 19 is_stmt 0 discriminator 18 view .LVU876
 2920 02b8 236A     		ldr	r3, [r4, #32]
 428:Drivers/STM32F0xx_HAL_Driver/Src/stm32f0xx_ll_usb.c ****             {
 2921              		.loc 1 428 16 discriminator 18 view .LVU877
 2922 02ba 2269     		ldr	r2, [r4, #16]
 2923 02bc 9342     		cmp	r3, r2
 2924 02be 24D9     		bls	.L106
 430:Drivers/STM32F0xx_HAL_Driver/Src/stm32f0xx_ll_usb.c ****             }
 2925              		.loc 1 430 15 is_stmt 1 view .LVU878
 430:Drivers/STM32F0xx_HAL_Driver/Src/stm32f0xx_ll_usb.c ****             }
 2926              		.loc 1 430 31 is_stmt 0 view .LVU879
 2927 02c0 9B1B     		subs	r3, r3, r6
 2928 02c2 2362     		str	r3, [r4, #32]
 2929              	.L107:
ARM GAS  /tmp/cclsNgIg.s 			page 74


 439:Drivers/STM32F0xx_HAL_Driver/Src/stm32f0xx_ll_usb.c ****             pmabuffer = ep->pmaaddr1;
 2930              		.loc 1 439 13 is_stmt 1 view .LVU880
 2931              	.LBB83:
 439:Drivers/STM32F0xx_HAL_Driver/Src/stm32f0xx_ll_usb.c ****             pmabuffer = ep->pmaaddr1;
 2932              		.loc 1 439 13 view .LVU881
 2933              	.LVL320:
 439:Drivers/STM32F0xx_HAL_Driver/Src/stm32f0xx_ll_usb.c ****             pmabuffer = ep->pmaaddr1;
 2934              		.loc 1 439 13 view .LVU882
 439:Drivers/STM32F0xx_HAL_Driver/Src/stm32f0xx_ll_usb.c ****             pmabuffer = ep->pmaaddr1;
 2935              		.loc 1 439 13 view .LVU883
 2936 02c4 6378     		ldrb	r3, [r4, #1]
 2937 02c6 002B     		cmp	r3, #0
 2938 02c8 4BD1     		bne	.L108
 439:Drivers/STM32F0xx_HAL_Driver/Src/stm32f0xx_ll_usb.c ****             pmabuffer = ep->pmaaddr1;
 2939              		.loc 1 439 13 discriminator 1 view .LVU884
 2940              	.LBB84:
 439:Drivers/STM32F0xx_HAL_Driver/Src/stm32f0xx_ll_usb.c ****             pmabuffer = ep->pmaaddr1;
 2941              		.loc 1 439 13 discriminator 1 view .LVU885
 2942              	.LVL321:
 439:Drivers/STM32F0xx_HAL_Driver/Src/stm32f0xx_ll_usb.c ****             pmabuffer = ep->pmaaddr1;
 2943              		.loc 1 439 13 discriminator 1 view .LVU886
 439:Drivers/STM32F0xx_HAL_Driver/Src/stm32f0xx_ll_usb.c ****             pmabuffer = ep->pmaaddr1;
 2944              		.loc 1 439 13 discriminator 1 view .LVU887
 2945 02ca 5033     		adds	r3, r3, #80
 2946 02cc EA5A     		ldrh	r2, [r5, r3]
 2947 02ce AA18     		adds	r2, r5, r2
 2948              	.LVL322:
 439:Drivers/STM32F0xx_HAL_Driver/Src/stm32f0xx_ll_usb.c ****             pmabuffer = ep->pmaaddr1;
 2949              		.loc 1 439 13 discriminator 1 view .LVU888
 2950 02d0 2378     		ldrb	r3, [r4]
 2951 02d2 DB00     		lsls	r3, r3, #3
 2952 02d4 9B18     		adds	r3, r3, r2
 2953 02d6 0F4A     		ldr	r2, .L173
 2954              	.LVL323:
 439:Drivers/STM32F0xx_HAL_Driver/Src/stm32f0xx_ll_usb.c ****             pmabuffer = ep->pmaaddr1;
 2955              		.loc 1 439 13 is_stmt 0 discriminator 1 view .LVU889
 2956 02d8 9446     		mov	ip, r2
 2957 02da 6344     		add	r3, r3, ip
 2958              	.LVL324:
 439:Drivers/STM32F0xx_HAL_Driver/Src/stm32f0xx_ll_usb.c ****             pmabuffer = ep->pmaaddr1;
 2959              		.loc 1 439 13 is_stmt 1 discriminator 1 view .LVU890
 2960              	.LBB85:
 439:Drivers/STM32F0xx_HAL_Driver/Src/stm32f0xx_ll_usb.c ****             pmabuffer = ep->pmaaddr1;
 2961              		.loc 1 439 13 discriminator 1 view .LVU891
 439:Drivers/STM32F0xx_HAL_Driver/Src/stm32f0xx_ll_usb.c ****             pmabuffer = ep->pmaaddr1;
 2962              		.loc 1 439 13 discriminator 1 view .LVU892
 2963 02dc 002E     		cmp	r6, #0
 2964 02de 2BD1     		bne	.L109
 439:Drivers/STM32F0xx_HAL_Driver/Src/stm32f0xx_ll_usb.c ****             pmabuffer = ep->pmaaddr1;
 2965              		.loc 1 439 13 discriminator 3 view .LVU893
 2966 02e0 1A88     		ldrh	r2, [r3]
 2967 02e2 0D49     		ldr	r1, .L173+4
 2968 02e4 0A40     		ands	r2, r1
 2969 02e6 1A80     		strh	r2, [r3]
 439:Drivers/STM32F0xx_HAL_Driver/Src/stm32f0xx_ll_usb.c ****             pmabuffer = ep->pmaaddr1;
 2970              		.loc 1 439 13 discriminator 3 view .LVU894
 2971 02e8 1A88     		ldrh	r2, [r3]
ARM GAS  /tmp/cclsNgIg.s 			page 75


 2972 02ea 0C49     		ldr	r1, .L173+8
 2973 02ec 0A43     		orrs	r2, r1
 2974 02ee 92B2     		uxth	r2, r2
 2975 02f0 1A80     		strh	r2, [r3]
 2976 02f2 38E0     		b	.L110
 2977              	.LVL325:
 2978              	.L169:
 439:Drivers/STM32F0xx_HAL_Driver/Src/stm32f0xx_ll_usb.c ****             pmabuffer = ep->pmaaddr1;
 2979              		.loc 1 439 13 is_stmt 0 discriminator 3 view .LVU895
 2980              	.LBE85:
 2981              	.LBE84:
 2982              	.LBE83:
 421:Drivers/STM32F0xx_HAL_Driver/Src/stm32f0xx_ll_usb.c ****             pmabuffer = ep->pmaaddr0;
 2983              		.loc 1 421 13 is_stmt 1 discriminator 16 view .LVU896
 2984              	.LBB88:
 421:Drivers/STM32F0xx_HAL_Driver/Src/stm32f0xx_ll_usb.c ****             pmabuffer = ep->pmaaddr0;
 2985              		.loc 1 421 13 discriminator 16 view .LVU897
 421:Drivers/STM32F0xx_HAL_Driver/Src/stm32f0xx_ll_usb.c ****             pmabuffer = ep->pmaaddr0;
 2986              		.loc 1 421 13 discriminator 16 view .LVU898
 421:Drivers/STM32F0xx_HAL_Driver/Src/stm32f0xx_ll_usb.c ****             pmabuffer = ep->pmaaddr0;
 2987              		.loc 1 421 13 discriminator 16 view .LVU899
 2988 02f4 4F32     		adds	r2, r2, #79
 2989 02f6 AA5A     		ldrh	r2, [r5, r2]
 2990 02f8 AA18     		adds	r2, r5, r2
 2991              	.LVL326:
 421:Drivers/STM32F0xx_HAL_Driver/Src/stm32f0xx_ll_usb.c ****             pmabuffer = ep->pmaaddr0;
 2992              		.loc 1 421 13 discriminator 16 view .LVU900
 2993 02fa DB00     		lsls	r3, r3, #3
 2994 02fc 9B18     		adds	r3, r3, r2
 2995 02fe 0A4A     		ldr	r2, .L173+20
 2996              	.LVL327:
 421:Drivers/STM32F0xx_HAL_Driver/Src/stm32f0xx_ll_usb.c ****             pmabuffer = ep->pmaaddr0;
 2997              		.loc 1 421 13 is_stmt 0 discriminator 16 view .LVU901
 2998 0300 9446     		mov	ip, r2
 2999 0302 6344     		add	r3, r3, ip
 3000              	.LVL328:
 421:Drivers/STM32F0xx_HAL_Driver/Src/stm32f0xx_ll_usb.c ****             pmabuffer = ep->pmaaddr0;
 3001              		.loc 1 421 13 is_stmt 1 discriminator 16 view .LVU902
 3002 0304 B2B2     		uxth	r2, r6
 3003 0306 1A80     		strh	r2, [r3]
 3004 0308 CDE7     		b	.L102
 3005              	.LVL329:
 3006              	.L106:
 421:Drivers/STM32F0xx_HAL_Driver/Src/stm32f0xx_ll_usb.c ****             pmabuffer = ep->pmaaddr0;
 3007              		.loc 1 421 13 is_stmt 0 discriminator 16 view .LVU903
 3008              	.LBE88:
 434:Drivers/STM32F0xx_HAL_Driver/Src/stm32f0xx_ll_usb.c ****               ep->xfer_len_db = 0U;
 3009              		.loc 1 434 15 is_stmt 1 view .LVU904
 435:Drivers/STM32F0xx_HAL_Driver/Src/stm32f0xx_ll_usb.c ****             }
 3010              		.loc 1 435 15 view .LVU905
 435:Drivers/STM32F0xx_HAL_Driver/Src/stm32f0xx_ll_usb.c ****             }
 3011              		.loc 1 435 31 is_stmt 0 view .LVU906
 3012 030a 0022     		movs	r2, #0
 3013 030c 2262     		str	r2, [r4, #32]
 434:Drivers/STM32F0xx_HAL_Driver/Src/stm32f0xx_ll_usb.c ****               ep->xfer_len_db = 0U;
 3014              		.loc 1 434 19 view .LVU907
 3015 030e 1E00     		movs	r6, r3
ARM GAS  /tmp/cclsNgIg.s 			page 76


 3016 0310 D8E7     		b	.L107
 3017              	.L174:
 3018 0312 C046     		.align	2
 3019              	.L173:
 3020 0314 06040000 		.word	1030
 3021 0318 FF83FFFF 		.word	-31745
 3022 031c 0080FFFF 		.word	-32768
 3023 0320 8FBFFFFF 		.word	-16497
 3024 0324 8080FFFF 		.word	-32640
 3025 0328 02040000 		.word	1026
 3026 032c BF8FFFFF 		.word	-28737
 3027 0330 8F8FFFFF 		.word	-28785
 3028 0334 8081FFFF 		.word	-32384
 3029              	.LVL330:
 3030              	.L109:
 3031              	.LBB89:
 3032              	.LBB87:
 3033              	.LBB86:
 439:Drivers/STM32F0xx_HAL_Driver/Src/stm32f0xx_ll_usb.c ****             pmabuffer = ep->pmaaddr1;
 3034              		.loc 1 439 13 is_stmt 1 discriminator 4 view .LVU908
 3035 0338 3E2E     		cmp	r6, #62
 3036 033a 07D8     		bhi	.L111
 439:Drivers/STM32F0xx_HAL_Driver/Src/stm32f0xx_ll_usb.c ****             pmabuffer = ep->pmaaddr1;
 3037              		.loc 1 439 13 discriminator 6 view .LVU909
 439:Drivers/STM32F0xx_HAL_Driver/Src/stm32f0xx_ll_usb.c ****             pmabuffer = ep->pmaaddr1;
 3038              		.loc 1 439 13 discriminator 6 view .LVU910
 3039 033c 7208     		lsrs	r2, r6, #1
 3040              	.LVL331:
 439:Drivers/STM32F0xx_HAL_Driver/Src/stm32f0xx_ll_usb.c ****             pmabuffer = ep->pmaaddr1;
 3041              		.loc 1 439 13 discriminator 6 view .LVU911
 3042 033e F107     		lsls	r1, r6, #31
 3043 0340 00D5     		bpl	.L112
 439:Drivers/STM32F0xx_HAL_Driver/Src/stm32f0xx_ll_usb.c ****             pmabuffer = ep->pmaaddr1;
 3044              		.loc 1 439 13 discriminator 8 view .LVU912
 3045 0342 0132     		adds	r2, r2, #1
 3046              	.LVL332:
 3047              	.L112:
 439:Drivers/STM32F0xx_HAL_Driver/Src/stm32f0xx_ll_usb.c ****             pmabuffer = ep->pmaaddr1;
 3048              		.loc 1 439 13 discriminator 10 view .LVU913
 3049 0344 9202     		lsls	r2, r2, #10
 3050              	.LVL333:
 439:Drivers/STM32F0xx_HAL_Driver/Src/stm32f0xx_ll_usb.c ****             pmabuffer = ep->pmaaddr1;
 3051              		.loc 1 439 13 is_stmt 0 discriminator 10 view .LVU914
 3052 0346 92B2     		uxth	r2, r2
 3053 0348 1A80     		strh	r2, [r3]
 439:Drivers/STM32F0xx_HAL_Driver/Src/stm32f0xx_ll_usb.c ****             pmabuffer = ep->pmaaddr1;
 3054              		.loc 1 439 13 is_stmt 1 discriminator 10 view .LVU915
 3055 034a 0CE0     		b	.L110
 3056              	.L111:
 439:Drivers/STM32F0xx_HAL_Driver/Src/stm32f0xx_ll_usb.c ****             pmabuffer = ep->pmaaddr1;
 3057              		.loc 1 439 13 discriminator 7 view .LVU916
 439:Drivers/STM32F0xx_HAL_Driver/Src/stm32f0xx_ll_usb.c ****             pmabuffer = ep->pmaaddr1;
 3058              		.loc 1 439 13 discriminator 7 view .LVU917
 3059 034c 7209     		lsrs	r2, r6, #5
 3060              	.LVL334:
 439:Drivers/STM32F0xx_HAL_Driver/Src/stm32f0xx_ll_usb.c ****             pmabuffer = ep->pmaaddr1;
 3061              		.loc 1 439 13 discriminator 7 view .LVU918
ARM GAS  /tmp/cclsNgIg.s 			page 77


 3062 034e F106     		lsls	r1, r6, #27
 3063 0350 00D1     		bne	.L113
 439:Drivers/STM32F0xx_HAL_Driver/Src/stm32f0xx_ll_usb.c ****             pmabuffer = ep->pmaaddr1;
 3064              		.loc 1 439 13 discriminator 12 view .LVU919
 3065 0352 013A     		subs	r2, r2, #1
 3066              	.LVL335:
 3067              	.L113:
 439:Drivers/STM32F0xx_HAL_Driver/Src/stm32f0xx_ll_usb.c ****             pmabuffer = ep->pmaaddr1;
 3068              		.loc 1 439 13 discriminator 14 view .LVU920
 3069 0354 9202     		lsls	r2, r2, #10
 3070              	.LVL336:
 439:Drivers/STM32F0xx_HAL_Driver/Src/stm32f0xx_ll_usb.c ****             pmabuffer = ep->pmaaddr1;
 3071              		.loc 1 439 13 is_stmt 0 discriminator 14 view .LVU921
 3072 0356 92B2     		uxth	r2, r2
 3073 0358 C349     		ldr	r1, .L175
 3074 035a 0A43     		orrs	r2, r1
 3075 035c 92B2     		uxth	r2, r2
 3076 035e 1A80     		strh	r2, [r3]
 3077 0360 01E0     		b	.L110
 3078              	.LVL337:
 3079              	.L108:
 439:Drivers/STM32F0xx_HAL_Driver/Src/stm32f0xx_ll_usb.c ****             pmabuffer = ep->pmaaddr1;
 3080              		.loc 1 439 13 discriminator 14 view .LVU922
 3081              	.LBE86:
 3082              	.LBE87:
 439:Drivers/STM32F0xx_HAL_Driver/Src/stm32f0xx_ll_usb.c ****             pmabuffer = ep->pmaaddr1;
 3083              		.loc 1 439 13 is_stmt 1 discriminator 2 view .LVU923
 3084 0362 012B     		cmp	r3, #1
 3085 0364 06D0     		beq	.L170
 3086              	.LVL338:
 3087              	.L110:
 439:Drivers/STM32F0xx_HAL_Driver/Src/stm32f0xx_ll_usb.c ****             pmabuffer = ep->pmaaddr1;
 3088              		.loc 1 439 13 is_stmt 0 discriminator 2 view .LVU924
 3089              	.LBE89:
 439:Drivers/STM32F0xx_HAL_Driver/Src/stm32f0xx_ll_usb.c ****             pmabuffer = ep->pmaaddr1;
 3090              		.loc 1 439 13 is_stmt 1 discriminator 18 view .LVU925
 440:Drivers/STM32F0xx_HAL_Driver/Src/stm32f0xx_ll_usb.c **** 
 3091              		.loc 1 440 13 discriminator 18 view .LVU926
 440:Drivers/STM32F0xx_HAL_Driver/Src/stm32f0xx_ll_usb.c **** 
 3092              		.loc 1 440 23 is_stmt 0 discriminator 18 view .LVU927
 3093 0366 6289     		ldrh	r2, [r4, #10]
 3094              	.LVL339:
 443:Drivers/STM32F0xx_HAL_Driver/Src/stm32f0xx_ll_usb.c ****           }
 3095              		.loc 1 443 13 is_stmt 1 discriminator 18 view .LVU928
 3096 0368 B3B2     		uxth	r3, r6
 3097 036a 6169     		ldr	r1, [r4, #20]
 3098 036c 2800     		movs	r0, r5
 3099 036e FFF7FEFF 		bl	USB_WritePMA
 3100              	.LVL340:
 443:Drivers/STM32F0xx_HAL_Driver/Src/stm32f0xx_ll_usb.c ****           }
 3101              		.loc 1 443 13 is_stmt 0 discriminator 18 view .LVU929
 3102 0372 B5E6     		b	.L82
 3103              	.LVL341:
 3104              	.L170:
 3105              	.LBB90:
 439:Drivers/STM32F0xx_HAL_Driver/Src/stm32f0xx_ll_usb.c ****             pmabuffer = ep->pmaaddr1;
 3106              		.loc 1 439 13 is_stmt 1 discriminator 16 view .LVU930
ARM GAS  /tmp/cclsNgIg.s 			page 78


 3107 0374 4F33     		adds	r3, r3, #79
 3108 0376 EA5A     		ldrh	r2, [r5, r3]
 3109 0378 AA18     		adds	r2, r5, r2
 3110              	.LVL342:
 439:Drivers/STM32F0xx_HAL_Driver/Src/stm32f0xx_ll_usb.c ****             pmabuffer = ep->pmaaddr1;
 3111              		.loc 1 439 13 discriminator 16 view .LVU931
 3112 037a 2378     		ldrb	r3, [r4]
 3113 037c DB00     		lsls	r3, r3, #3
 3114 037e 9B18     		adds	r3, r3, r2
 3115 0380 BA4A     		ldr	r2, .L175+4
 3116              	.LVL343:
 439:Drivers/STM32F0xx_HAL_Driver/Src/stm32f0xx_ll_usb.c ****             pmabuffer = ep->pmaaddr1;
 3117              		.loc 1 439 13 is_stmt 0 discriminator 16 view .LVU932
 3118 0382 9446     		mov	ip, r2
 3119 0384 6344     		add	r3, r3, ip
 3120              	.LVL344:
 439:Drivers/STM32F0xx_HAL_Driver/Src/stm32f0xx_ll_usb.c ****             pmabuffer = ep->pmaaddr1;
 3121              		.loc 1 439 13 is_stmt 1 discriminator 16 view .LVU933
 3122 0386 B2B2     		uxth	r2, r6
 3123 0388 1A80     		strh	r2, [r3]
 3124 038a ECE7     		b	.L110
 3125              	.LVL345:
 3126              	.L84:
 439:Drivers/STM32F0xx_HAL_Driver/Src/stm32f0xx_ll_usb.c ****             pmabuffer = ep->pmaaddr1;
 3127              		.loc 1 439 13 is_stmt 0 discriminator 16 view .LVU934
 3128              	.LBE90:
 449:Drivers/STM32F0xx_HAL_Driver/Src/stm32f0xx_ll_usb.c **** 
 3129              		.loc 1 449 11 is_stmt 1 view .LVU935
 452:Drivers/STM32F0xx_HAL_Driver/Src/stm32f0xx_ll_usb.c **** 
 3130              		.loc 1 452 11 view .LVU936
 3131              	.LBB91:
 452:Drivers/STM32F0xx_HAL_Driver/Src/stm32f0xx_ll_usb.c **** 
 3132              		.loc 1 452 11 view .LVU937
 452:Drivers/STM32F0xx_HAL_Driver/Src/stm32f0xx_ll_usb.c **** 
 3133              		.loc 1 452 11 view .LVU938
 3134 038c 2278     		ldrb	r2, [r4]
 3135 038e 9200     		lsls	r2, r2, #2
 3136 0390 AA18     		adds	r2, r5, r2
 3137 0392 1188     		ldrh	r1, [r2]
 3138 0394 B648     		ldr	r0, .L175+8
 3139              	.LVL346:
 452:Drivers/STM32F0xx_HAL_Driver/Src/stm32f0xx_ll_usb.c **** 
 3140              		.loc 1 452 11 is_stmt 0 view .LVU939
 3141 0396 0840     		ands	r0, r1
 3142              	.LVL347:
 452:Drivers/STM32F0xx_HAL_Driver/Src/stm32f0xx_ll_usb.c **** 
 3143              		.loc 1 452 11 is_stmt 1 view .LVU940
 3144 0398 B649     		ldr	r1, .L175+12
 3145 039a 0143     		orrs	r1, r0
 3146 039c 89B2     		uxth	r1, r1
 3147 039e 1180     		strh	r1, [r2]
 3148              	.LBE91:
 452:Drivers/STM32F0xx_HAL_Driver/Src/stm32f0xx_ll_usb.c **** 
 3149              		.loc 1 452 11 view .LVU941
 455:Drivers/STM32F0xx_HAL_Driver/Src/stm32f0xx_ll_usb.c ****           pmabuffer = ep->pmaaddr0;
 3150              		.loc 1 455 11 view .LVU942
 3151              	.LBB92:
ARM GAS  /tmp/cclsNgIg.s 			page 79


 455:Drivers/STM32F0xx_HAL_Driver/Src/stm32f0xx_ll_usb.c ****           pmabuffer = ep->pmaaddr0;
 3152              		.loc 1 455 11 view .LVU943
 3153              	.LVL348:
 455:Drivers/STM32F0xx_HAL_Driver/Src/stm32f0xx_ll_usb.c ****           pmabuffer = ep->pmaaddr0;
 3154              		.loc 1 455 11 view .LVU944
 455:Drivers/STM32F0xx_HAL_Driver/Src/stm32f0xx_ll_usb.c ****           pmabuffer = ep->pmaaddr0;
 3155              		.loc 1 455 11 view .LVU945
 3156 03a0 5022     		movs	r2, #80
 3157 03a2 A95A     		ldrh	r1, [r5, r2]
 3158 03a4 6918     		adds	r1, r5, r1
 3159              	.LVL349:
 455:Drivers/STM32F0xx_HAL_Driver/Src/stm32f0xx_ll_usb.c ****           pmabuffer = ep->pmaaddr0;
 3160              		.loc 1 455 11 view .LVU946
 3161 03a6 2278     		ldrb	r2, [r4]
 3162 03a8 D200     		lsls	r2, r2, #3
 3163 03aa 5218     		adds	r2, r2, r1
 3164 03ac B249     		ldr	r1, .L175+16
 3165              	.LVL350:
 455:Drivers/STM32F0xx_HAL_Driver/Src/stm32f0xx_ll_usb.c ****           pmabuffer = ep->pmaaddr0;
 3166              		.loc 1 455 11 is_stmt 0 view .LVU947
 3167 03ae 8C46     		mov	ip, r1
 3168 03b0 6244     		add	r2, r2, ip
 3169              	.LVL351:
 455:Drivers/STM32F0xx_HAL_Driver/Src/stm32f0xx_ll_usb.c ****           pmabuffer = ep->pmaaddr0;
 3170              		.loc 1 455 11 is_stmt 1 view .LVU948
 3171 03b2 9BB2     		uxth	r3, r3
 3172              	.LVL352:
